Archive member included because of file (symbol)

c:/freescale/kds_v3/toolchain/bin/../lib/gcc/arm-none-eabi/4.8.4/armv7e-m/fpu\libgcc.a(_aeabi_uldivmod.o)
                              ./BSP/cpu_bsp.o (__aeabi_uldivmod)
c:/freescale/kds_v3/toolchain/bin/../lib/gcc/arm-none-eabi/4.8.4/armv7e-m/fpu\libgcc.a(bpabi.o)
                              c:/freescale/kds_v3/toolchain/bin/../lib/gcc/arm-none-eabi/4.8.4/armv7e-m/fpu\libgcc.a(_aeabi_uldivmod.o) (__gnu_uldivmod_helper)
c:/freescale/kds_v3/toolchain/bin/../lib/gcc/arm-none-eabi/4.8.4/armv7e-m/fpu\libgcc.a(_dvmd_tls.o)
                              c:/freescale/kds_v3/toolchain/bin/../lib/gcc/arm-none-eabi/4.8.4/armv7e-m/fpu\libgcc.a(_aeabi_uldivmod.o) (__aeabi_ldiv0)
c:/freescale/kds_v3/toolchain/bin/../lib/gcc/arm-none-eabi/4.8.4/armv7e-m/fpu\libgcc.a(_divdi3.o)
                              c:/freescale/kds_v3/toolchain/bin/../lib/gcc/arm-none-eabi/4.8.4/armv7e-m/fpu\libgcc.a(bpabi.o) (__divdi3)
c:/freescale/kds_v3/toolchain/bin/../lib/gcc/arm-none-eabi/4.8.4/armv7e-m/fpu\libgcc.a(_udivdi3.o)
                              c:/freescale/kds_v3/toolchain/bin/../lib/gcc/arm-none-eabi/4.8.4/armv7e-m/fpu\libgcc.a(bpabi.o) (__udivdi3)
c:/freescale/kds_v3/toolchain/bin/../lib/gcc/arm-none-eabi/4.8.4/../../../../arm-none-eabi/lib/armv7e-m/fpu\libg_s.a(lib_a-assert.o)
                              ./KSDK/platform/system/interrupt/src/fsl_interrupt_manager.o (__assert_func)
c:/freescale/kds_v3/toolchain/bin/../lib/gcc/arm-none-eabi/4.8.4/../../../../arm-none-eabi/lib/armv7e-m/fpu\libg_s.a(lib_a-calloc.o)
                              ./KSDK/platform/osa/src/fsl_os_abstraction_ucosiii.o (calloc)
c:/freescale/kds_v3/toolchain/bin/../lib/gcc/arm-none-eabi/4.8.4/../../../../arm-none-eabi/lib/armv7e-m/fpu\libg_s.a(lib_a-exit.o)
                              c:/freescale/kds_v3/toolchain/bin/../lib/gcc/arm-none-eabi/4.8.4/../../../../arm-none-eabi/lib/armv7e-m/fpu/crt0.o (exit)
c:/freescale/kds_v3/toolchain/bin/../lib/gcc/arm-none-eabi/4.8.4/../../../../arm-none-eabi/lib/armv7e-m/fpu\libg_s.a(lib_a-fprintf.o)
                              c:/freescale/kds_v3/toolchain/bin/../lib/gcc/arm-none-eabi/4.8.4/../../../../arm-none-eabi/lib/armv7e-m/fpu\libg_s.a(lib_a-assert.o) (fiprintf)
c:/freescale/kds_v3/toolchain/bin/../lib/gcc/arm-none-eabi/4.8.4/../../../../arm-none-eabi/lib/armv7e-m/fpu\libg_s.a(lib_a-impure.o)
                              c:/freescale/kds_v3/toolchain/bin/../lib/gcc/arm-none-eabi/4.8.4/../../../../arm-none-eabi/lib/armv7e-m/fpu\libg_s.a(lib_a-exit.o) (_global_impure_ptr)
c:/freescale/kds_v3/toolchain/bin/../lib/gcc/arm-none-eabi/4.8.4/../../../../arm-none-eabi/lib/armv7e-m/fpu\libg_s.a(lib_a-init.o)
                              c:/freescale/kds_v3/toolchain/bin/../lib/gcc/arm-none-eabi/4.8.4/../../../../arm-none-eabi/lib/armv7e-m/fpu/crt0.o (__libc_init_array)
c:/freescale/kds_v3/toolchain/bin/../lib/gcc/arm-none-eabi/4.8.4/../../../../arm-none-eabi/lib/armv7e-m/fpu\libg_s.a(lib_a-malloc.o)
                              ./KSDK/platform/osa/src/fsl_os_abstraction_ucosiii.o (malloc)
c:/freescale/kds_v3/toolchain/bin/../lib/gcc/arm-none-eabi/4.8.4/../../../../arm-none-eabi/lib/armv7e-m/fpu\libg_s.a(lib_a-memset.o)
                              c:/freescale/kds_v3/toolchain/bin/../lib/gcc/arm-none-eabi/4.8.4/../../../../arm-none-eabi/lib/armv7e-m/fpu/crt0.o (memset)
c:/freescale/kds_v3/toolchain/bin/../lib/gcc/arm-none-eabi/4.8.4/../../../../arm-none-eabi/lib/armv7e-m/fpu\libg_s.a(lib_a-nano-callocr.o)
                              c:/freescale/kds_v3/toolchain/bin/../lib/gcc/arm-none-eabi/4.8.4/../../../../arm-none-eabi/lib/armv7e-m/fpu\libg_s.a(lib_a-calloc.o) (_calloc_r)
c:/freescale/kds_v3/toolchain/bin/../lib/gcc/arm-none-eabi/4.8.4/../../../../arm-none-eabi/lib/armv7e-m/fpu\libg_s.a(lib_a-nano-freer.o)
                              c:/freescale/kds_v3/toolchain/bin/../lib/gcc/arm-none-eabi/4.8.4/../../../../arm-none-eabi/lib/armv7e-m/fpu\libg_s.a(lib_a-malloc.o) (_free_r)
c:/freescale/kds_v3/toolchain/bin/../lib/gcc/arm-none-eabi/4.8.4/../../../../arm-none-eabi/lib/armv7e-m/fpu\libg_s.a(lib_a-nano-mallocr.o)
                              c:/freescale/kds_v3/toolchain/bin/../lib/gcc/arm-none-eabi/4.8.4/../../../../arm-none-eabi/lib/armv7e-m/fpu\libg_s.a(lib_a-malloc.o) (_malloc_r)
c:/freescale/kds_v3/toolchain/bin/../lib/gcc/arm-none-eabi/4.8.4/../../../../arm-none-eabi/lib/armv7e-m/fpu\libg_s.a(lib_a-sbrkr.o)
                              c:/freescale/kds_v3/toolchain/bin/../lib/gcc/arm-none-eabi/4.8.4/../../../../arm-none-eabi/lib/armv7e-m/fpu\libg_s.a(lib_a-nano-mallocr.o) (_sbrk_r)
c:/freescale/kds_v3/toolchain/bin/../lib/gcc/arm-none-eabi/4.8.4/../../../../arm-none-eabi/lib/armv7e-m/fpu\libg_s.a(lib_a-vfprintf.o)
                              c:/freescale/kds_v3/toolchain/bin/../lib/gcc/arm-none-eabi/4.8.4/../../../../arm-none-eabi/lib/armv7e-m/fpu\libg_s.a(lib_a-fprintf.o) (_vfprintf_r)
c:/freescale/kds_v3/toolchain/bin/../lib/gcc/arm-none-eabi/4.8.4/../../../../arm-none-eabi/lib/armv7e-m/fpu\libg_s.a(lib_a-vfprintf_i.o)
                              c:/freescale/kds_v3/toolchain/bin/../lib/gcc/arm-none-eabi/4.8.4/../../../../arm-none-eabi/lib/armv7e-m/fpu\libg_s.a(lib_a-vfprintf.o) (_printf_i)
c:/freescale/kds_v3/toolchain/bin/../lib/gcc/arm-none-eabi/4.8.4/../../../../arm-none-eabi/lib/armv7e-m/fpu\libg_s.a(lib_a-vsprintf.o)
                              ./BSP/bsp_ser.o (vsprintf)
c:/freescale/kds_v3/toolchain/bin/../lib/gcc/arm-none-eabi/4.8.4/../../../../arm-none-eabi/lib/armv7e-m/fpu\libg_s.a(lib_a-wbuf.o)
                              c:/freescale/kds_v3/toolchain/bin/../lib/gcc/arm-none-eabi/4.8.4/../../../../arm-none-eabi/lib/armv7e-m/fpu\libg_s.a(lib_a-vfprintf.o) (__swbuf_r)
c:/freescale/kds_v3/toolchain/bin/../lib/gcc/arm-none-eabi/4.8.4/../../../../arm-none-eabi/lib/armv7e-m/fpu\libg_s.a(lib_a-wsetup.o)
                              c:/freescale/kds_v3/toolchain/bin/../lib/gcc/arm-none-eabi/4.8.4/../../../../arm-none-eabi/lib/armv7e-m/fpu\libg_s.a(lib_a-vfprintf.o) (__swsetup_r)
c:/freescale/kds_v3/toolchain/bin/../lib/gcc/arm-none-eabi/4.8.4/../../../../arm-none-eabi/lib/armv7e-m/fpu\libg_s.a(lib_a-abort.o)
                              c:/freescale/kds_v3/toolchain/bin/../lib/gcc/arm-none-eabi/4.8.4/../../../../arm-none-eabi/lib/armv7e-m/fpu\libg_s.a(lib_a-assert.o) (abort)
c:/freescale/kds_v3/toolchain/bin/../lib/gcc/arm-none-eabi/4.8.4/../../../../arm-none-eabi/lib/armv7e-m/fpu\libg_s.a(lib_a-fflush.o)
                              c:/freescale/kds_v3/toolchain/bin/../lib/gcc/arm-none-eabi/4.8.4/../../../../arm-none-eabi/lib/armv7e-m/fpu\libg_s.a(lib_a-wbuf.o) (_fflush_r)
c:/freescale/kds_v3/toolchain/bin/../lib/gcc/arm-none-eabi/4.8.4/../../../../arm-none-eabi/lib/armv7e-m/fpu\libg_s.a(lib_a-findfp.o)
                              c:/freescale/kds_v3/toolchain/bin/../lib/gcc/arm-none-eabi/4.8.4/../../../../arm-none-eabi/lib/armv7e-m/fpu\libg_s.a(lib_a-vfprintf.o) (__sinit)
c:/freescale/kds_v3/toolchain/bin/../lib/gcc/arm-none-eabi/4.8.4/../../../../arm-none-eabi/lib/armv7e-m/fpu\libg_s.a(lib_a-fvwrite.o)
                              c:/freescale/kds_v3/toolchain/bin/../lib/gcc/arm-none-eabi/4.8.4/../../../../arm-none-eabi/lib/armv7e-m/fpu\libg_s.a(lib_a-vfprintf.o) (__sfvwrite_r)
c:/freescale/kds_v3/toolchain/bin/../lib/gcc/arm-none-eabi/4.8.4/../../../../arm-none-eabi/lib/armv7e-m/fpu\libg_s.a(lib_a-fwalk.o)
                              c:/freescale/kds_v3/toolchain/bin/../lib/gcc/arm-none-eabi/4.8.4/../../../../arm-none-eabi/lib/armv7e-m/fpu\libg_s.a(lib_a-findfp.o) (_fwalk)
c:/freescale/kds_v3/toolchain/bin/../lib/gcc/arm-none-eabi/4.8.4/../../../../arm-none-eabi/lib/armv7e-m/fpu\libg_s.a(lib_a-makebuf.o)
                              c:/freescale/kds_v3/toolchain/bin/../lib/gcc/arm-none-eabi/4.8.4/../../../../arm-none-eabi/lib/armv7e-m/fpu\libg_s.a(lib_a-wsetup.o) (__smakebuf_r)
c:/freescale/kds_v3/toolchain/bin/../lib/gcc/arm-none-eabi/4.8.4/../../../../arm-none-eabi/lib/armv7e-m/fpu\libg_s.a(lib_a-memchr-stub.o)
                              c:/freescale/kds_v3/toolchain/bin/../lib/gcc/arm-none-eabi/4.8.4/../../../../arm-none-eabi/lib/armv7e-m/fpu\libg_s.a(lib_a-vfprintf.o) (memchr)
c:/freescale/kds_v3/toolchain/bin/../lib/gcc/arm-none-eabi/4.8.4/../../../../arm-none-eabi/lib/armv7e-m/fpu\libg_s.a(lib_a-memcpy-stub.o)
                              c:/freescale/kds_v3/toolchain/bin/../lib/gcc/arm-none-eabi/4.8.4/../../../../arm-none-eabi/lib/armv7e-m/fpu\libg_s.a(lib_a-fvwrite.o) (memcpy)
c:/freescale/kds_v3/toolchain/bin/../lib/gcc/arm-none-eabi/4.8.4/../../../../arm-none-eabi/lib/armv7e-m/fpu\libg_s.a(lib_a-memmove.o)
                              c:/freescale/kds_v3/toolchain/bin/../lib/gcc/arm-none-eabi/4.8.4/../../../../arm-none-eabi/lib/armv7e-m/fpu\libg_s.a(lib_a-fvwrite.o) (memmove)
c:/freescale/kds_v3/toolchain/bin/../lib/gcc/arm-none-eabi/4.8.4/../../../../arm-none-eabi/lib/armv7e-m/fpu\libg_s.a(lib_a-nano-reallocr.o)
                              c:/freescale/kds_v3/toolchain/bin/../lib/gcc/arm-none-eabi/4.8.4/../../../../arm-none-eabi/lib/armv7e-m/fpu\libg_s.a(lib_a-fvwrite.o) (_realloc_r)
c:/freescale/kds_v3/toolchain/bin/../lib/gcc/arm-none-eabi/4.8.4/../../../../arm-none-eabi/lib/armv7e-m/fpu\libg_s.a(lib_a-reent.o)
                              c:/freescale/kds_v3/toolchain/bin/../lib/gcc/arm-none-eabi/4.8.4/../../../../arm-none-eabi/lib/armv7e-m/fpu\libg_s.a(lib_a-sbrkr.o) (errno)
c:/freescale/kds_v3/toolchain/bin/../lib/gcc/arm-none-eabi/4.8.4/../../../../arm-none-eabi/lib/armv7e-m/fpu\libg_s.a(lib_a-signal.o)
                              c:/freescale/kds_v3/toolchain/bin/../lib/gcc/arm-none-eabi/4.8.4/../../../../arm-none-eabi/lib/armv7e-m/fpu\libg_s.a(lib_a-abort.o) (raise)
c:/freescale/kds_v3/toolchain/bin/../lib/gcc/arm-none-eabi/4.8.4/../../../../arm-none-eabi/lib/armv7e-m/fpu\libg_s.a(lib_a-signalr.o)
                              c:/freescale/kds_v3/toolchain/bin/../lib/gcc/arm-none-eabi/4.8.4/../../../../arm-none-eabi/lib/armv7e-m/fpu\libg_s.a(lib_a-signal.o) (_kill_r)
c:/freescale/kds_v3/toolchain/bin/../lib/gcc/arm-none-eabi/4.8.4/../../../../arm-none-eabi/lib/armv7e-m/fpu\libg_s.a(lib_a-stdio.o)
                              c:/freescale/kds_v3/toolchain/bin/../lib/gcc/arm-none-eabi/4.8.4/../../../../arm-none-eabi/lib/armv7e-m/fpu\libg_s.a(lib_a-findfp.o) (__sread)
c:/freescale/kds_v3/toolchain/bin/../lib/gcc/arm-none-eabi/4.8.4/../../../../arm-none-eabi/lib/armv7e-m/fpu\libg_s.a(lib_a-strlen.o)
                              c:/freescale/kds_v3/toolchain/bin/../lib/gcc/arm-none-eabi/4.8.4/../../../../arm-none-eabi/lib/armv7e-m/fpu\libg_s.a(lib_a-vfprintf_i.o) (strlen)
c:/freescale/kds_v3/toolchain/bin/../lib/gcc/arm-none-eabi/4.8.4/../../../../arm-none-eabi/lib/armv7e-m/fpu\libg_s.a(lib_a-svfprintf.o)
                              c:/freescale/kds_v3/toolchain/bin/../lib/gcc/arm-none-eabi/4.8.4/../../../../arm-none-eabi/lib/armv7e-m/fpu\libg_s.a(lib_a-vsprintf.o) (_svfprintf_r)
c:/freescale/kds_v3/toolchain/bin/../lib/gcc/arm-none-eabi/4.8.4/../../../../arm-none-eabi/lib/armv7e-m/fpu\libg_s.a(lib_a-writer.o)
                              c:/freescale/kds_v3/toolchain/bin/../lib/gcc/arm-none-eabi/4.8.4/../../../../arm-none-eabi/lib/armv7e-m/fpu\libg_s.a(lib_a-stdio.o) (_write_r)
c:/freescale/kds_v3/toolchain/bin/../lib/gcc/arm-none-eabi/4.8.4/../../../../arm-none-eabi/lib/armv7e-m/fpu\libg_s.a(lib_a-closer.o)
                              c:/freescale/kds_v3/toolchain/bin/../lib/gcc/arm-none-eabi/4.8.4/../../../../arm-none-eabi/lib/armv7e-m/fpu\libg_s.a(lib_a-stdio.o) (_close_r)
c:/freescale/kds_v3/toolchain/bin/../lib/gcc/arm-none-eabi/4.8.4/../../../../arm-none-eabi/lib/armv7e-m/fpu\libg_s.a(lib_a-fstatr.o)
                              c:/freescale/kds_v3/toolchain/bin/../lib/gcc/arm-none-eabi/4.8.4/../../../../arm-none-eabi/lib/armv7e-m/fpu\libg_s.a(lib_a-makebuf.o) (_fstat_r)
c:/freescale/kds_v3/toolchain/bin/../lib/gcc/arm-none-eabi/4.8.4/../../../../arm-none-eabi/lib/armv7e-m/fpu\libg_s.a(lib_a-isattyr.o)
                              c:/freescale/kds_v3/toolchain/bin/../lib/gcc/arm-none-eabi/4.8.4/../../../../arm-none-eabi/lib/armv7e-m/fpu\libg_s.a(lib_a-makebuf.o) (_isatty_r)
c:/freescale/kds_v3/toolchain/bin/../lib/gcc/arm-none-eabi/4.8.4/../../../../arm-none-eabi/lib/armv7e-m/fpu\libg_s.a(lib_a-lseekr.o)
                              c:/freescale/kds_v3/toolchain/bin/../lib/gcc/arm-none-eabi/4.8.4/../../../../arm-none-eabi/lib/armv7e-m/fpu\libg_s.a(lib_a-stdio.o) (_lseek_r)
c:/freescale/kds_v3/toolchain/bin/../lib/gcc/arm-none-eabi/4.8.4/../../../../arm-none-eabi/lib/armv7e-m/fpu\libg_s.a(lib_a-nano-msizer.o)
                              c:/freescale/kds_v3/toolchain/bin/../lib/gcc/arm-none-eabi/4.8.4/../../../../arm-none-eabi/lib/armv7e-m/fpu\libg_s.a(lib_a-nano-reallocr.o) (_malloc_usable_size_r)
c:/freescale/kds_v3/toolchain/bin/../lib/gcc/arm-none-eabi/4.8.4/../../../../arm-none-eabi/lib/armv7e-m/fpu\libg_s.a(lib_a-readr.o)
                              c:/freescale/kds_v3/toolchain/bin/../lib/gcc/arm-none-eabi/4.8.4/../../../../arm-none-eabi/lib/armv7e-m/fpu\libg_s.a(lib_a-stdio.o) (_read_r)
c:/freescale/kds_v3/toolchain/bin/../lib/gcc/arm-none-eabi/4.8.4/../../../../arm-none-eabi/lib/armv7e-m/fpu\libnosys.a(close.o)
                              c:/freescale/kds_v3/toolchain/bin/../lib/gcc/arm-none-eabi/4.8.4/../../../../arm-none-eabi/lib/armv7e-m/fpu\libg_s.a(lib_a-closer.o) (_close)
c:/freescale/kds_v3/toolchain/bin/../lib/gcc/arm-none-eabi/4.8.4/../../../../arm-none-eabi/lib/armv7e-m/fpu\libnosys.a(fstat.o)
                              c:/freescale/kds_v3/toolchain/bin/../lib/gcc/arm-none-eabi/4.8.4/../../../../arm-none-eabi/lib/armv7e-m/fpu\libg_s.a(lib_a-fstatr.o) (_fstat)
c:/freescale/kds_v3/toolchain/bin/../lib/gcc/arm-none-eabi/4.8.4/../../../../arm-none-eabi/lib/armv7e-m/fpu\libnosys.a(getpid.o)
                              c:/freescale/kds_v3/toolchain/bin/../lib/gcc/arm-none-eabi/4.8.4/../../../../arm-none-eabi/lib/armv7e-m/fpu\libg_s.a(lib_a-signalr.o) (_getpid)
c:/freescale/kds_v3/toolchain/bin/../lib/gcc/arm-none-eabi/4.8.4/../../../../arm-none-eabi/lib/armv7e-m/fpu\libnosys.a(isatty.o)
                              c:/freescale/kds_v3/toolchain/bin/../lib/gcc/arm-none-eabi/4.8.4/../../../../arm-none-eabi/lib/armv7e-m/fpu\libg_s.a(lib_a-isattyr.o) (_isatty)
c:/freescale/kds_v3/toolchain/bin/../lib/gcc/arm-none-eabi/4.8.4/../../../../arm-none-eabi/lib/armv7e-m/fpu\libnosys.a(kill.o)
                              c:/freescale/kds_v3/toolchain/bin/../lib/gcc/arm-none-eabi/4.8.4/../../../../arm-none-eabi/lib/armv7e-m/fpu\libg_s.a(lib_a-signalr.o) (_kill)
c:/freescale/kds_v3/toolchain/bin/../lib/gcc/arm-none-eabi/4.8.4/../../../../arm-none-eabi/lib/armv7e-m/fpu\libnosys.a(lseek.o)
                              c:/freescale/kds_v3/toolchain/bin/../lib/gcc/arm-none-eabi/4.8.4/../../../../arm-none-eabi/lib/armv7e-m/fpu\libg_s.a(lib_a-lseekr.o) (_lseek)
c:/freescale/kds_v3/toolchain/bin/../lib/gcc/arm-none-eabi/4.8.4/../../../../arm-none-eabi/lib/armv7e-m/fpu\libnosys.a(read.o)
                              c:/freescale/kds_v3/toolchain/bin/../lib/gcc/arm-none-eabi/4.8.4/../../../../arm-none-eabi/lib/armv7e-m/fpu\libg_s.a(lib_a-readr.o) (_read)
c:/freescale/kds_v3/toolchain/bin/../lib/gcc/arm-none-eabi/4.8.4/../../../../arm-none-eabi/lib/armv7e-m/fpu\libnosys.a(sbrk.o)
                              c:/freescale/kds_v3/toolchain/bin/../lib/gcc/arm-none-eabi/4.8.4/../../../../arm-none-eabi/lib/armv7e-m/fpu\libg_s.a(lib_a-sbrkr.o) (_sbrk)
c:/freescale/kds_v3/toolchain/bin/../lib/gcc/arm-none-eabi/4.8.4/../../../../arm-none-eabi/lib/armv7e-m/fpu\libnosys.a(write.o)
                              c:/freescale/kds_v3/toolchain/bin/../lib/gcc/arm-none-eabi/4.8.4/../../../../arm-none-eabi/lib/armv7e-m/fpu\libg_s.a(lib_a-writer.o) (_write)
c:/freescale/kds_v3/toolchain/bin/../lib/gcc/arm-none-eabi/4.8.4/../../../../arm-none-eabi/lib/armv7e-m/fpu\libnosys.a(_exit.o)
                              c:/freescale/kds_v3/toolchain/bin/../lib/gcc/arm-none-eabi/4.8.4/../../../../arm-none-eabi/lib/armv7e-m/fpu\libg_s.a(lib_a-exit.o) (_exit)

Allocating common symbols
Common symbol       size              file

OSSchedLockNestingCtr
                    0x1               ./uCOS-III/Source/os_var.o
OS_AppTaskReturnHookPtr
                    0x4               ./uCOS-III/Source/os_var.o
OSStatTaskTimeMax   0x4               ./uCOS-III/Source/os_var.o
OSStatTaskCtr       0x4               ./uCOS-III/Source/os_var.o
OSTaskRegNextAvailID
                    0x1               ./uCOS-III/Source/os_var.o
OSRunning           0x1               ./uCOS-III/Source/os_var.o
Mem_SegHeap         0x14              ./uC-LIB/lib_mem.o
OSRdyList           0x180             ./uCOS-III/Source/os_var.o
OSPrioHighRdy       0x1               ./uCOS-III/Source/os_var.o
errno               0x4               c:/freescale/kds_v3/toolchain/bin/../lib/gcc/arm-none-eabi/4.8.4/../../../../arm-none-eabi/lib/armv7e-m/fpu\libg_s.a(lib_a-reent.o)
OSStatTaskRdy       0x1               ./uCOS-III/Source/os_var.o
OSSemDbgListPtr     0x4               ./uCOS-III/Source/os_var.o
OS_AppTaskCreateHookPtr
                    0x4               ./uCOS-III/Source/os_var.o
OSCfg_StatTaskStk   0x200             ./uCOS-III/Source/os_cfg_app.o
Mem_SegHeadPtr      0x4               ./uC-LIB/lib_mem.o
OSPrioCur           0x1               ./uCOS-III/Source/os_var.o
OSTickTaskTCB       0xc4              ./uCOS-III/Source/os_var.o
Math_RandSeedCur    0x4               ./uC-LIB/lib_math.o
OSTmrTickCtr        0x4               ./uCOS-III/Source/os_var.o
OSTCBCurPtr         0x4               ./uCOS-III/Source/os_var.o
OSCfg_MsgPool       0x640             ./uCOS-III/Source/os_cfg_app.o
OSQQty              0x2               ./uCOS-III/Source/os_var.o
OSStatTaskCPUUsageMax
                    0x2               ./uCOS-III/Source/os_var.o
OSPrioSaved         0x1               ./uCOS-III/Source/os_var.o
OSTCBHighRdyPtr     0x4               ./uCOS-III/Source/os_var.o
CPU_TS_TmrFreq_Hz   0x4               ./uC-CPU/cpu_core.o
OSTaskDbgListPtr    0x4               ./uCOS-III/Source/os_var.o
OSTmrTaskTimeMax    0x4               ./uCOS-III/Source/os_var.o
OS_AppTaskDelHookPtr
                    0x4               ./uCOS-III/Source/os_var.o
OS_AppTimeTickHookPtr
                    0x4               ./uCOS-III/Source/os_var.o
OSStatTaskCPUUsage  0x2               ./uCOS-III/Source/os_var.o
OSTaskCtxSwCtr      0x4               ./uCOS-III/Source/os_var.o
OSIntNestingCtr     0x1               ./uCOS-III/Source/os_var.o
OSTaskQty           0x2               ./uCOS-III/Source/os_var.o
OS_CPU_ExceptStkBase
                    0x4               ./uCOS-III/Ports/ARM-Cortex-M4/Generic/GNU/os_cpu_c.o
OSTmrTaskTCB        0xc4              ./uCOS-III/Source/os_var.o
OSMsgPool           0xc               ./uCOS-III/Source/os_var.o
OSIdleTaskTCB       0xc4              ./uCOS-III/Source/os_var.o
CPU_TS_64_TmrPrev   0x4               ./uC-CPU/cpu_core.o
CPU_TS_64_Accum     0x8               ./uC-CPU/cpu_core.o
OSQDbgListPtr       0x4               ./uCOS-III/Source/os_var.o
OSSemQty            0x2               ./uCOS-III/Source/os_var.o
OSMemDbgListPtr     0x4               ./uCOS-III/Source/os_var.o
OSSchedRoundRobinDfltTimeQuanta
                    0x4               ./uCOS-III/Source/os_var.o
OSCfg_TmrTaskStk    0x200             ./uCOS-III/Source/os_cfg_app.o
OSTmrMutex          0x30              ./uCOS-III/Source/os_var.o
OS_AppIdleTaskHookPtr
                    0x4               ./uCOS-III/Source/os_var.o
OSStatTaskCtrMax    0x4               ./uCOS-III/Source/os_var.o
Mem_Heap            0x400             ./uC-LIB/lib_mem.o
OSTickCtr           0x4               ./uCOS-III/Source/os_var.o
OS_AppTaskSwHookPtr
                    0x4               ./uCOS-III/Source/os_var.o
OSTmrQty            0x2               ./uCOS-III/Source/os_var.o
OSCfg_ISRStk        0x200             ./uCOS-III/Source/os_cfg_app.o
OSIdleTaskCtr       0x4               ./uCOS-III/Source/os_var.o
OSStatTaskCtrRun    0x4               ./uCOS-III/Source/os_var.o
OS_AppStatTaskHookPtr
                    0x4               ./uCOS-III/Source/os_var.o
OSCfg_TickTaskStk   0x200             ./uCOS-III/Source/os_cfg_app.o
OSFlagQty           0x2               ./uCOS-III/Source/os_var.o
OSFlagDbgListPtr    0x4               ./uCOS-III/Source/os_var.o
OSStatResetFlag     0x1               ./uCOS-III/Source/os_var.o
OSMemQty            0x2               ./uCOS-III/Source/os_var.o
OSMutexQty          0x2               ./uCOS-III/Source/os_var.o
OSStatTaskTCB       0xc4              ./uCOS-III/Source/os_var.o
OSTmrListPtr        0x4               ./uCOS-III/Source/os_var.o
OSPrioTbl           0x4               ./uCOS-III/Source/os_prio.o
OSTmrDbgListPtr     0x4               ./uCOS-III/Source/os_var.o
OSTickTaskTimeMax   0x4               ./uCOS-III/Source/os_var.o
OSTmrListEntries    0x2               ./uCOS-III/Source/os_var.o
OSTmrUpdateCnt      0x4               ./uCOS-III/Source/os_var.o
OSSchedRoundRobinEn
                    0x1               ./uCOS-III/Source/os_var.o
OSMutexDbgListPtr   0x4               ./uCOS-III/Source/os_var.o
OSTickListDly       0x8               ./uCOS-III/Source/os_var.o
OSTmrUpdateCtr      0x4               ./uCOS-III/Source/os_var.o
OSTickListTimeout   0x8               ./uCOS-III/Source/os_var.o
OSCfg_IdleTaskStk   0x200             ./uCOS-III/Source/os_cfg_app.o
CPU_Name            0x10              ./uC-CPU/cpu_core.o

Discarded input sections

 .text          0x00000000        0x0 c:/freescale/kds_v3/toolchain/bin/../lib/gcc/arm-none-eabi/4.8.4/armv7e-m/fpu/crti.o
 .data          0x00000000        0x0 c:/freescale/kds_v3/toolchain/bin/../lib/gcc/arm-none-eabi/4.8.4/armv7e-m/fpu/crti.o
 .bss           0x00000000        0x0 c:/freescale/kds_v3/toolchain/bin/../lib/gcc/arm-none-eabi/4.8.4/armv7e-m/fpu/crti.o
 .data          0x00000000        0x4 c:/freescale/kds_v3/toolchain/bin/../lib/gcc/arm-none-eabi/4.8.4/armv7e-m/fpu/crtbegin.o
 .data          0x00000000        0x0 c:/freescale/kds_v3/toolchain/bin/../lib/gcc/arm-none-eabi/4.8.4/../../../../arm-none-eabi/lib/armv7e-m/fpu/crt0.o
 .bss           0x00000000        0x0 c:/freescale/kds_v3/toolchain/bin/../lib/gcc/arm-none-eabi/4.8.4/../../../../arm-none-eabi/lib/armv7e-m/fpu/crt0.o
 .ARM.extab     0x00000000        0x0 c:/freescale/kds_v3/toolchain/bin/../lib/gcc/arm-none-eabi/4.8.4/../../../../arm-none-eabi/lib/armv7e-m/fpu/crt0.o
 .text          0x00000000        0x0 ./uCOS-III/Source/os_cfg_app.o
 .data          0x00000000        0x0 ./uCOS-III/Source/os_cfg_app.o
 .bss           0x00000000        0x0 ./uCOS-III/Source/os_cfg_app.o
 .rodata.OSCfg_IdleTaskStkSizeRAM
                0x00000000        0x4 ./uCOS-III/Source/os_cfg_app.o
 .rodata.OSCfg_IntQBasePtr
                0x00000000        0x4 ./uCOS-III/Source/os_cfg_app.o
 .rodata.OSCfg_IntQSize
                0x00000000        0x2 ./uCOS-III/Source/os_cfg_app.o
 .rodata.OSCfg_IntQSizeRAM
                0x00000000        0x4 ./uCOS-III/Source/os_cfg_app.o
 .rodata.OSCfg_IntQTaskStkBasePtr
                0x00000000        0x4 ./uCOS-III/Source/os_cfg_app.o
 .rodata.OSCfg_IntQTaskStkLimit
                0x00000000        0x4 ./uCOS-III/Source/os_cfg_app.o
 .rodata.OSCfg_IntQTaskStkSize
                0x00000000        0x4 ./uCOS-III/Source/os_cfg_app.o
 .rodata.OSCfg_IntQTaskStkSizeRAM
                0x00000000        0x4 ./uCOS-III/Source/os_cfg_app.o
 .rodata.OSCfg_ISRStkSizeRAM
                0x00000000        0x4 ./uCOS-III/Source/os_cfg_app.o
 .rodata.OSCfg_MsgPoolSizeRAM
                0x00000000        0x4 ./uCOS-III/Source/os_cfg_app.o
 .rodata.OSCfg_StatTaskStkSizeRAM
                0x00000000        0x4 ./uCOS-III/Source/os_cfg_app.o
 .rodata.OSCfg_TickTaskStkSizeRAM
                0x00000000        0x4 ./uCOS-III/Source/os_cfg_app.o
 .rodata.OSCfg_TmrTaskStkSizeRAM
                0x00000000        0x4 ./uCOS-III/Source/os_cfg_app.o
 .rodata.OSCfg_DataSizeRAM
                0x00000000        0x4 ./uCOS-III/Source/os_cfg_app.o
 .text          0x00000000        0x0 ./uCOS-III/Source/os_core.o
 .data          0x00000000        0x0 ./uCOS-III/Source/os_core.o
 .bss           0x00000000        0x0 ./uCOS-III/Source/os_core.o
 .text.OSSchedRoundRobinYield
                0x00000000       0xa8 ./uCOS-III/Source/os_core.o
 .text.OSVersion
                0x00000000       0x20 ./uCOS-III/Source/os_core.o
 .text.OS_PendAbort
                0x00000000      0x108 ./uCOS-III/Source/os_core.o
 .text.OS_PendAbort1
                0x00000000       0x50 ./uCOS-III/Source/os_core.o
 .text.OS_PendListInsertHead
                0x00000000       0x54 ./uCOS-III/Source/os_core.o
 .text.OS_PendObjDel
                0x00000000       0xfc ./uCOS-III/Source/os_core.o
 .text.OS_PendObjDel1
                0x00000000       0x50 ./uCOS-III/Source/os_core.o
 .text          0x00000000        0x0 ./uCOS-III/Source/os_dbg.o
 .data          0x00000000        0x0 ./uCOS-III/Source/os_dbg.o
 .bss           0x00000000        0x0 ./uCOS-III/Source/os_dbg.o
 .rodata.OSDbg_IntQ
                0x00000000        0x2 ./uCOS-III/Source/os_dbg.o
 .rodata.OSDbg_TLS_TblSize
                0x00000000        0x2 ./uCOS-III/Source/os_dbg.o
 .text          0x00000000        0x0 ./uCOS-III/Source/os_flag.o
 .data          0x00000000        0x0 ./uCOS-III/Source/os_flag.o
 .bss           0x00000000        0x0 ./uCOS-III/Source/os_flag.o
 .text.OSFlagCreate
                0x00000000       0x60 ./uCOS-III/Source/os_flag.o
 .text.OSFlagDel
                0x00000000       0xd4 ./uCOS-III/Source/os_flag.o
 .text.OSFlagPend
                0x00000000      0x420 ./uCOS-III/Source/os_flag.o
 .text.OSFlagPendGetFlagsRdy
                0x00000000       0x30 ./uCOS-III/Source/os_flag.o
 .text.OSFlagPost
                0x00000000       0x34 ./uCOS-III/Source/os_flag.o
 .text.OS_FlagBlock
                0x00000000       0x44 ./uCOS-III/Source/os_flag.o
 .rodata        0x00000000        0xc ./uCOS-III/Source/os_flag.o
 .text.OS_FlagClr
                0x00000000       0x34 ./uCOS-III/Source/os_flag.o
 .text.OS_FlagDbgListAdd
                0x00000000       0x4c ./uCOS-III/Source/os_flag.o
 .text.OS_FlagDbgListRemove
                0x00000000       0x70 ./uCOS-III/Source/os_flag.o
 .text.OS_FlagPost
                0x00000000      0x1c8 ./uCOS-III/Source/os_flag.o
 .text.OS_FlagTaskRdy
                0x00000000       0x94 ./uCOS-III/Source/os_flag.o
 .text          0x00000000        0x0 ./uCOS-III/Source/os_int.o
 .data          0x00000000        0x0 ./uCOS-III/Source/os_int.o
 .bss           0x00000000        0x0 ./uCOS-III/Source/os_int.o
 .debug_info    0x00000000       0x6e ./uCOS-III/Source/os_int.o
 .debug_abbrev  0x00000000       0x24 ./uCOS-III/Source/os_int.o
 .debug_aranges
                0x00000000       0x18 ./uCOS-III/Source/os_int.o
 .debug_line    0x00000000       0x1d ./uCOS-III/Source/os_int.o
 .debug_str     0x00000000      0x1b3 ./uCOS-III/Source/os_int.o
 .comment       0x00000000       0x71 ./uCOS-III/Source/os_int.o
 .ARM.attributes
                0x00000000       0x39 ./uCOS-III/Source/os_int.o
 .text          0x00000000        0x0 ./uCOS-III/Source/os_mem.o
 .data          0x00000000        0x0 ./uCOS-III/Source/os_mem.o
 .bss           0x00000000        0x0 ./uCOS-III/Source/os_mem.o
 .text.OSMemCreate
                0x00000000       0xa0 ./uCOS-III/Source/os_mem.o
 .text.OSMemGet
                0x00000000       0x54 ./uCOS-III/Source/os_mem.o
 .text.OSMemPut
                0x00000000       0x54 ./uCOS-III/Source/os_mem.o
 .text.OS_MemDbgListAdd
                0x00000000       0x44 ./uCOS-III/Source/os_mem.o
 .text          0x00000000        0x0 ./uCOS-III/Source/os_msg.o
 .data          0x00000000        0x0 ./uCOS-III/Source/os_msg.o
 .bss           0x00000000        0x0 ./uCOS-III/Source/os_msg.o
 .text.OS_MsgQGet
                0x00000000       0xc0 ./uCOS-III/Source/os_msg.o
 .text.OS_MsgQPut
                0x00000000      0x10c ./uCOS-III/Source/os_msg.o
 .text          0x00000000        0x0 ./uCOS-III/Source/os_mutex.o
 .data          0x00000000        0x0 ./uCOS-III/Source/os_mutex.o
 .bss           0x00000000        0x0 ./uCOS-III/Source/os_mutex.o
 .text.OSMutexDel
                0x00000000      0x12c ./uCOS-III/Source/os_mutex.o
 .text.OS_MutexClr
                0x00000000       0x48 ./uCOS-III/Source/os_mutex.o
 .text.OS_MutexDbgListRemove
                0x00000000       0x70 ./uCOS-III/Source/os_mutex.o
 .text          0x00000000        0x0 ./uCOS-III/Source/os_pend_multi.o
 .data          0x00000000        0x0 ./uCOS-III/Source/os_pend_multi.o
 .bss           0x00000000        0x0 ./uCOS-III/Source/os_pend_multi.o
 .text.OSPendMulti
                0x00000000      0x110 ./uCOS-III/Source/os_pend_multi.o
 .text.OS_PendMultiGetRdy
                0x00000000       0xec ./uCOS-III/Source/os_pend_multi.o
 .text.OS_PendMultiValidate
                0x00000000       0x84 ./uCOS-III/Source/os_pend_multi.o
 .text.OS_PendMultiWait
                0x00000000       0xb0 ./uCOS-III/Source/os_pend_multi.o
 .debug_info    0x00000000      0xfc1 ./uCOS-III/Source/os_pend_multi.o
 .debug_abbrev  0x00000000      0x192 ./uCOS-III/Source/os_pend_multi.o
 .debug_aranges
                0x00000000       0x38 ./uCOS-III/Source/os_pend_multi.o
 .debug_ranges  0x00000000       0x28 ./uCOS-III/Source/os_pend_multi.o
 .debug_line    0x00000000      0x211 ./uCOS-III/Source/os_pend_multi.o
 .debug_str     0x00000000     0x138a ./uCOS-III/Source/os_pend_multi.o
 .comment       0x00000000       0x71 ./uCOS-III/Source/os_pend_multi.o
 .ARM.attributes
                0x00000000       0x39 ./uCOS-III/Source/os_pend_multi.o
 .debug_frame   0x00000000       0x8c ./uCOS-III/Source/os_pend_multi.o
 .text          0x00000000        0x0 ./uCOS-III/Source/os_prio.o
 .data          0x00000000        0x0 ./uCOS-III/Source/os_prio.o
 .bss           0x00000000        0x0 ./uCOS-III/Source/os_prio.o
 .text          0x00000000        0x0 ./uCOS-III/Source/os_q.o
 .data          0x00000000        0x0 ./uCOS-III/Source/os_q.o
 .bss           0x00000000        0x0 ./uCOS-III/Source/os_q.o
 .text.OSQCreate
                0x00000000       0x64 ./uCOS-III/Source/os_q.o
 .text.OSQDel   0x00000000       0xd4 ./uCOS-III/Source/os_q.o
 .text.OSQFlush
                0x00000000       0x30 ./uCOS-III/Source/os_q.o
 .text.OSQPend  0x00000000      0x170 ./uCOS-III/Source/os_q.o
 .text.OSQPendAbort
                0x00000000       0x84 ./uCOS-III/Source/os_q.o
 .text.OSQPost  0x00000000       0x2c ./uCOS-III/Source/os_q.o
 .rodata        0x00000000        0x8 ./uCOS-III/Source/os_q.o
 .text.OS_QClr  0x00000000       0x44 ./uCOS-III/Source/os_q.o
 .text.OS_QDbgListAdd
                0x00000000       0x4c ./uCOS-III/Source/os_q.o
 .text.OS_QDbgListRemove
                0x00000000       0x70 ./uCOS-III/Source/os_q.o
 .text.OS_QPost
                0x00000000       0xbc ./uCOS-III/Source/os_q.o
 .text          0x00000000        0x0 ./uCOS-III/Source/os_sem.o
 .data          0x00000000        0x0 ./uCOS-III/Source/os_sem.o
 .bss           0x00000000        0x0 ./uCOS-III/Source/os_sem.o
 .text.OSSemDel
                0x00000000       0xd4 ./uCOS-III/Source/os_sem.o
 .text.OSSemPendAbort
                0x00000000       0x84 ./uCOS-III/Source/os_sem.o
 .text.OSSemSet
                0x00000000       0x50 ./uCOS-III/Source/os_sem.o
 .text.OS_SemClr
                0x00000000       0x38 ./uCOS-III/Source/os_sem.o
 .text.OS_SemDbgListRemove
                0x00000000       0x70 ./uCOS-III/Source/os_sem.o
 .text          0x00000000        0x0 ./uCOS-III/Source/os_stat.o
 .data          0x00000000        0x0 ./uCOS-III/Source/os_stat.o
 .bss           0x00000000        0x0 ./uCOS-III/Source/os_stat.o
 .text.OSStatTaskCPUUsageInit
                0x00000000       0xf0 ./uCOS-III/Source/os_stat.o
 .text          0x00000000        0x0 ./uCOS-III/Source/os_task.o
 .data          0x00000000        0x0 ./uCOS-III/Source/os_task.o
 .bss           0x00000000        0x0 ./uCOS-III/Source/os_task.o
 .text.OSTaskChangePrio
                0x00000000       0x8c ./uCOS-III/Source/os_task.o
 .text.OSTaskQFlush
                0x00000000       0x48 ./uCOS-III/Source/os_task.o
 .text.OSTaskQPend
                0x00000000      0x180 ./uCOS-III/Source/os_task.o
 .text.OSTaskQPost
                0x00000000       0x2c ./uCOS-III/Source/os_task.o
 .text.OSTaskRegGet
                0x00000000       0x44 ./uCOS-III/Source/os_task.o
 .text.OSTaskRegGetID
                0x00000000       0x50 ./uCOS-III/Source/os_task.o
 .text.OSTaskRegSet
                0x00000000       0x40 ./uCOS-III/Source/os_task.o
 .text.OSTaskResume
                0x00000000       0x20 ./uCOS-III/Source/os_task.o
 .text.OSTaskSemPendAbort
                0x00000000       0x88 ./uCOS-III/Source/os_task.o
 .text.OSTaskSemSet
                0x00000000       0x40 ./uCOS-III/Source/os_task.o
 .text.OSTaskSuspend
                0x00000000       0x30 ./uCOS-III/Source/os_task.o
 .text.OSTaskTimeQuantaSet
                0x00000000       0x60 ./uCOS-III/Source/os_task.o
 .text.OS_TaskQPost
                0x00000000       0xdc ./uCOS-III/Source/os_task.o
 .text.OS_TaskResume
                0x00000000      0x110 ./uCOS-III/Source/os_task.o
 .text.OS_TaskSuspend
                0x00000000      0x104 ./uCOS-III/Source/os_task.o
 .text          0x00000000        0x0 ./uCOS-III/Source/os_tick.o
 .data          0x00000000        0x0 ./uCOS-III/Source/os_tick.o
 .bss           0x00000000        0x0 ./uCOS-III/Source/os_tick.o
 .text          0x00000000        0x0 ./uCOS-III/Source/os_time.o
 .data          0x00000000        0x0 ./uCOS-III/Source/os_time.o
 .bss           0x00000000        0x0 ./uCOS-III/Source/os_time.o
 .text.OSTimeDlyResume
                0x00000000      0x104 ./uCOS-III/Source/os_time.o
 .text.OSTimeGet
                0x00000000       0x2c ./uCOS-III/Source/os_time.o
 .text.OSTimeSet
                0x00000000       0x28 ./uCOS-III/Source/os_time.o
 .text          0x00000000        0x0 ./uCOS-III/Source/os_tmr.o
 .data          0x00000000        0x0 ./uCOS-III/Source/os_tmr.o
 .bss           0x00000000        0x0 ./uCOS-III/Source/os_tmr.o
 .text.OSTmrCreate
                0x00000000       0x80 ./uCOS-III/Source/os_tmr.o
 .text.OSTmrDel
                0x00000000       0xb0 ./uCOS-III/Source/os_tmr.o
 .text.OSTmrRemainGet
                0x00000000       0xac ./uCOS-III/Source/os_tmr.o
 .text.OSTmrStart
                0x00000000       0xfc ./uCOS-III/Source/os_tmr.o
 .text.OSTmrStateGet
                0x00000000       0x3c ./uCOS-III/Source/os_tmr.o
 .text.OSTmrStop
                0x00000000       0xe4 ./uCOS-III/Source/os_tmr.o
 .text.OS_TmrClr
                0x00000000       0x60 ./uCOS-III/Source/os_tmr.o
 .text.OS_TmrDbgListAdd
                0x00000000       0x44 ./uCOS-III/Source/os_tmr.o
 .text.OS_TmrDbgListRemove
                0x00000000       0x70 ./uCOS-III/Source/os_tmr.o
 .text          0x00000000        0x0 ./uCOS-III/Source/os_var.o
 .data          0x00000000        0x0 ./uCOS-III/Source/os_var.o
 .bss           0x00000000        0x0 ./uCOS-III/Source/os_var.o
 .data          0x00000000        0x0 ./uCOS-III/Ports/ARM-Cortex-M4/Generic/GNU/os_cpu_a.o
 .bss           0x00000000        0x0 ./uCOS-III/Ports/ARM-Cortex-M4/Generic/GNU/os_cpu_a.o
 .text          0x00000000        0x0 ./uCOS-III/Ports/ARM-Cortex-M4/Generic/GNU/os_cpu_c.o
 .data          0x00000000        0x0 ./uCOS-III/Ports/ARM-Cortex-M4/Generic/GNU/os_cpu_c.o
 .bss           0x00000000        0x0 ./uCOS-III/Ports/ARM-Cortex-M4/Generic/GNU/os_cpu_c.o
 .text          0x00000000        0x0 ./uC-LIB/lib_ascii.o
 .data          0x00000000        0x0 ./uC-LIB/lib_ascii.o
 .bss           0x00000000        0x0 ./uC-LIB/lib_ascii.o
 .text.ASCII_IsAlpha
                0x00000000       0x40 ./uC-LIB/lib_ascii.o
 .text.ASCII_IsAlphaNum
                0x00000000       0x50 ./uC-LIB/lib_ascii.o
 .text.ASCII_IsLower
                0x00000000       0x30 ./uC-LIB/lib_ascii.o
 .text.ASCII_IsUpper
                0x00000000       0x30 ./uC-LIB/lib_ascii.o
 .text.ASCII_IsDig
                0x00000000       0x30 ./uC-LIB/lib_ascii.o
 .text.ASCII_IsDigOct
                0x00000000       0x30 ./uC-LIB/lib_ascii.o
 .text.ASCII_IsDigHex
                0x00000000       0x50 ./uC-LIB/lib_ascii.o
 .text.ASCII_IsBlank
                0x00000000       0x30 ./uC-LIB/lib_ascii.o
 .text.ASCII_IsSpace
                0x00000000       0x50 ./uC-LIB/lib_ascii.o
 .text.ASCII_IsPrint
                0x00000000       0x30 ./uC-LIB/lib_ascii.o
 .text.ASCII_IsGraph
                0x00000000       0x30 ./uC-LIB/lib_ascii.o
 .text.ASCII_IsPunct
                0x00000000       0x90 ./uC-LIB/lib_ascii.o
 .text.ASCII_IsCtrl
                0x00000000       0x38 ./uC-LIB/lib_ascii.o
 .text.ASCII_ToLower
                0x00000000       0x38 ./uC-LIB/lib_ascii.o
 .text.ASCII_ToUpper
                0x00000000       0x38 ./uC-LIB/lib_ascii.o
 .text.ASCII_Cmp
                0x00000000       0x48 ./uC-LIB/lib_ascii.o
 .debug_info    0x00000000      0x41d ./uC-LIB/lib_ascii.o
 .debug_abbrev  0x00000000       0xd2 ./uC-LIB/lib_ascii.o
 .debug_aranges
                0x00000000       0x98 ./uC-LIB/lib_ascii.o
 .debug_ranges  0x00000000       0x88 ./uC-LIB/lib_ascii.o
 .debug_line    0x00000000      0x3e8 ./uC-LIB/lib_ascii.o
 .debug_str     0x00000000      0x303 ./uC-LIB/lib_ascii.o
 .comment       0x00000000       0x71 ./uC-LIB/lib_ascii.o
 .ARM.attributes
                0x00000000       0x39 ./uC-LIB/lib_ascii.o
 .debug_frame   0x00000000      0x1d4 ./uC-LIB/lib_ascii.o
 .text          0x00000000        0x0 ./uC-LIB/lib_math.o
 .data          0x00000000        0x0 ./uC-LIB/lib_math.o
 .bss           0x00000000        0x0 ./uC-LIB/lib_math.o
 .text.Math_Init
                0x00000000        0xc ./uC-LIB/lib_math.o
 .text.Math_RandSetSeed
                0x00000000       0x20 ./uC-LIB/lib_math.o
 .text.Math_Rand
                0x00000000       0x30 ./uC-LIB/lib_math.o
 .text.Math_RandSeed
                0x00000000       0x30 ./uC-LIB/lib_math.o
 .debug_info    0x00000000      0x13a ./uC-LIB/lib_math.o
 .debug_abbrev  0x00000000       0xec ./uC-LIB/lib_math.o
 .debug_aranges
                0x00000000       0x38 ./uC-LIB/lib_math.o
 .debug_ranges  0x00000000       0x28 ./uC-LIB/lib_math.o
 .debug_line    0x00000000      0x12c ./uC-LIB/lib_math.o
 .debug_str     0x00000000      0x209 ./uC-LIB/lib_math.o
 .comment       0x00000000       0x71 ./uC-LIB/lib_math.o
 .ARM.attributes
                0x00000000       0x39 ./uC-LIB/lib_math.o
 .debug_frame   0x00000000       0x88 ./uC-LIB/lib_math.o
 COMMON         0x00000000        0x4 ./uC-LIB/lib_math.o
 .text          0x00000000        0x0 ./uC-LIB/lib_mem.o
 .data          0x00000000        0x0 ./uC-LIB/lib_mem.o
 .bss           0x00000000        0x0 ./uC-LIB/lib_mem.o
 .rodata        0x00000000       0x40 ./uC-LIB/lib_mem.o
 .text.Mem_Init
                0x00000000       0x4c ./uC-LIB/lib_mem.o
 .text.Mem_Move
                0x00000000      0x110 ./uC-LIB/lib_mem.o
 .text.Mem_Cmp  0x00000000      0x138 ./uC-LIB/lib_mem.o
 .text.Mem_HeapAlloc
                0x00000000       0x4c ./uC-LIB/lib_mem.o
 .text.Mem_HeapGetSizeRem
                0x00000000       0x38 ./uC-LIB/lib_mem.o
 .text.Mem_SegCreate
                0x00000000       0x34 ./uC-LIB/lib_mem.o
 .text.Mem_SegClr
                0x00000000       0x28 ./uC-LIB/lib_mem.o
 .text.Mem_SegRemSizeGet
                0x00000000       0x98 ./uC-LIB/lib_mem.o
 .text.Mem_SegAlloc
                0x00000000       0x34 ./uC-LIB/lib_mem.o
 .text.Mem_SegAllocExt
                0x00000000       0x34 ./uC-LIB/lib_mem.o
 .text.Mem_SegAllocHW
                0x00000000       0x34 ./uC-LIB/lib_mem.o
 .text.Mem_PoolCreate
                0x00000000      0x188 ./uC-LIB/lib_mem.o
 .text.Mem_PoolClr
                0x00000000       0x40 ./uC-LIB/lib_mem.o
 .text.Mem_PoolBlkGet
                0x00000000       0x6c ./uC-LIB/lib_mem.o
 .text.Mem_PoolBlkFree
                0x00000000       0x58 ./uC-LIB/lib_mem.o
 .text.Mem_PoolBlkGetNbrAvail
                0x00000000       0x2c ./uC-LIB/lib_mem.o
 .text.Mem_DynPoolCreate
                0x00000000       0x34 ./uC-LIB/lib_mem.o
 .text.Mem_DynPoolCreateHW
                0x00000000       0x38 ./uC-LIB/lib_mem.o
 .text.Mem_DynPoolBlkGet
                0x00000000       0xb0 ./uC-LIB/lib_mem.o
 .text.Mem_DynPoolBlkFree
                0x00000000       0x60 ./uC-LIB/lib_mem.o
 .text.Mem_DynPoolBlkNbrAvailGet
                0x00000000       0x48 ./uC-LIB/lib_mem.o
 .text.Mem_SegCreateCritical
                0x00000000       0x48 ./uC-LIB/lib_mem.o
 .text.Mem_SegOverlapChkCritical
                0x00000000       0x98 ./uC-LIB/lib_mem.o
 .text.Mem_SegAllocInternal
                0x00000000       0x58 ./uC-LIB/lib_mem.o
 .text.Mem_SegAllocExtCritical
                0x00000000       0xbc ./uC-LIB/lib_mem.o
 .text.Mem_DynPoolCreateInternal
                0x00000000      0x108 ./uC-LIB/lib_mem.o
 COMMON         0x00000000      0x418 ./uC-LIB/lib_mem.o
 .text          0x00000000        0x0 ./uC-LIB/lib_str.o
 .data          0x00000000        0x0 ./uC-LIB/lib_str.o
 .bss           0x00000000        0x0 ./uC-LIB/lib_str.o
 .rodata.Str_MultOvfThTbl_Int32U
                0x00000000       0x94 ./uC-LIB/lib_str.o
 .text.Str_Len  0x00000000       0x20 ./uC-LIB/lib_str.o
 .text.Str_Copy
                0x00000000       0x24 ./uC-LIB/lib_str.o
 .text.Str_Cat  0x00000000       0x24 ./uC-LIB/lib_str.o
 .text.Str_Cat_N
                0x00000000       0xb4 ./uC-LIB/lib_str.o
 .text.Str_Cmp  0x00000000       0x28 ./uC-LIB/lib_str.o
 .text.Str_Cmp_N
                0x00000000      0x130 ./uC-LIB/lib_str.o
 .text.Str_CmpIgnoreCase
                0x00000000       0x28 ./uC-LIB/lib_str.o
 .text.Str_CmpIgnoreCase_N
                0x00000000      0x198 ./uC-LIB/lib_str.o
 .text.Str_Char
                0x00000000       0x28 ./uC-LIB/lib_str.o
 .text.Str_Char_N
                0x00000000       0x94 ./uC-LIB/lib_str.o
 .text.Str_Char_Last
                0x00000000       0x28 ./uC-LIB/lib_str.o
 .text.Str_Char_Last_N
                0x00000000       0x84 ./uC-LIB/lib_str.o
 .text.Str_Char_Replace
                0x00000000       0x34 ./uC-LIB/lib_str.o
 .text.Str_Char_Replace_N
                0x00000000       0x74 ./uC-LIB/lib_str.o
 .text.Str_Str  0x00000000       0x24 ./uC-LIB/lib_str.o
 .text.Str_Str_N
                0x00000000       0xec ./uC-LIB/lib_str.o
 .text.Str_FmtNbr_Int32U
                0x00000000       0x3c ./uC-LIB/lib_str.o
 .text.Str_FmtNbr_Int32S
                0x00000000       0x58 ./uC-LIB/lib_str.o
 .text.Str_ParseNbr_Int32U
                0x00000000       0x2c ./uC-LIB/lib_str.o
 .text.Str_ParseNbr_Int32S
                0x00000000       0x58 ./uC-LIB/lib_str.o
 .text.Str_FmtNbr_Int32
                0x00000000      0x270 ./uC-LIB/lib_str.o
 .text.Str_ParseNbr_Int32
                0x00000000      0x2b0 ./uC-LIB/lib_str.o
 .data          0x00000000        0x0 ./uC-CPU/ARM-Cortex-M4/GNU/cpu_a.o
 .bss           0x00000000        0x0 ./uC-CPU/ARM-Cortex-M4/GNU/cpu_a.o
 .text          0x00000000        0x0 ./uC-CPU/ARM-Cortex-M4/GNU/cpu_c.o
 .data          0x00000000        0x0 ./uC-CPU/ARM-Cortex-M4/GNU/cpu_c.o
 .bss           0x00000000        0x0 ./uC-CPU/ARM-Cortex-M4/GNU/cpu_c.o
 .text.CPU_BitBandClr
                0x00000000       0x74 ./uC-CPU/ARM-Cortex-M4/GNU/cpu_c.o
 .text.CPU_BitBandSet
                0x00000000       0x74 ./uC-CPU/ARM-Cortex-M4/GNU/cpu_c.o
 .text.CPU_IntSrcDis
                0x00000000      0x12c ./uC-CPU/ARM-Cortex-M4/GNU/cpu_c.o
 .text.CPU_IntSrcEn
                0x00000000      0x12c ./uC-CPU/ARM-Cortex-M4/GNU/cpu_c.o
 .text.CPU_IntSrcPendClr
                0x00000000       0xcc ./uC-CPU/ARM-Cortex-M4/GNU/cpu_c.o
 .text.CPU_IntSrcPrioSet
                0x00000000      0x220 ./uC-CPU/ARM-Cortex-M4/GNU/cpu_c.o
 .text.CPU_IntSrcPrioGet
                0x00000000      0x1b8 ./uC-CPU/ARM-Cortex-M4/GNU/cpu_c.o
 .debug_info    0x00000000      0x31d ./uC-CPU/ARM-Cortex-M4/GNU/cpu_c.o
 .debug_abbrev  0x00000000      0x11c ./uC-CPU/ARM-Cortex-M4/GNU/cpu_c.o
 .debug_aranges
                0x00000000       0x50 ./uC-CPU/ARM-Cortex-M4/GNU/cpu_c.o
 .debug_ranges  0x00000000       0x40 ./uC-CPU/ARM-Cortex-M4/GNU/cpu_c.o
 .debug_line    0x00000000      0x204 ./uC-CPU/ARM-Cortex-M4/GNU/cpu_c.o
 .debug_str     0x00000000      0x295 ./uC-CPU/ARM-Cortex-M4/GNU/cpu_c.o
 .comment       0x00000000       0x71 ./uC-CPU/ARM-Cortex-M4/GNU/cpu_c.o
 .ARM.attributes
                0x00000000       0x39 ./uC-CPU/ARM-Cortex-M4/GNU/cpu_c.o
 .debug_frame   0x00000000       0xe8 ./uC-CPU/ARM-Cortex-M4/GNU/cpu_c.o
 .text          0x00000000        0x0 ./uC-CPU/cpu_core.o
 .data          0x00000000        0x0 ./uC-CPU/cpu_core.o
 .bss           0x00000000        0x0 ./uC-CPU/cpu_core.o
 .rodata.CPU_CntLeadZerosTbl
                0x00000000      0x100 ./uC-CPU/cpu_core.o
 .rodata.CPU_EndiannessTest
                0x00000000        0x4 ./uC-CPU/cpu_core.o
 .text.CPU_NameGet
                0x00000000       0x44 ./uC-CPU/cpu_core.o
 .text.CPU_TS_Get32
                0x00000000       0x18 ./uC-CPU/cpu_core.o
 .text.CPU_TS_Get64
                0x00000000       0x60 ./uC-CPU/cpu_core.o
 .text.CPU_TS_Update
                0x00000000        0xc ./uC-CPU/cpu_core.o
 .text.CPU_TS_TmrFreqGet
                0x00000000       0x38 ./uC-CPU/cpu_core.o
 .text.CPU_CntLeadZeros08
                0x00000000       0x24 ./uC-CPU/cpu_core.o
 .text.CPU_CntLeadZeros16
                0x00000000       0x24 ./uC-CPU/cpu_core.o
 .text.CPU_CntLeadZeros32
                0x00000000       0x1c ./uC-CPU/cpu_core.o
 .text.CPU_CntLeadZeros64
                0x00000000      0x180 ./uC-CPU/cpu_core.o
 .text.CPU_CntTrailZeros08
                0x00000000       0x28 ./uC-CPU/cpu_core.o
 .text.CPU_CntTrailZeros16
                0x00000000       0x28 ./uC-CPU/cpu_core.o
 .text.CPU_CntTrailZeros32
                0x00000000       0x24 ./uC-CPU/cpu_core.o
 .text.CPU_CntTrailZeros64
                0x00000000       0x50 ./uC-CPU/cpu_core.o
 .text          0x00000000        0x0 ./KSDK/platform/system/interrupt/src/fsl_interrupt_manager.o
 .data          0x00000000        0x0 ./KSDK/platform/system/interrupt/src/fsl_interrupt_manager.o
 .bss           0x00000000        0x0 ./KSDK/platform/system/interrupt/src/fsl_interrupt_manager.o
 .text          0x00000000        0x0 ./KSDK/platform/system/clock/MK64F12/fsl_clock_K64F12.o
 .data          0x00000000        0x0 ./KSDK/platform/system/clock/MK64F12/fsl_clock_K64F12.o
 .bss           0x00000000        0x0 ./KSDK/platform/system/clock/MK64F12/fsl_clock_K64F12.o
 .text.CLOCK_SYS_GetDmaFreq
                0x00000000       0x24 ./KSDK/platform/system/clock/MK64F12/fsl_clock_K64F12.o
 .text.CLOCK_SYS_GetDmamuxFreq
                0x00000000       0x24 ./KSDK/platform/system/clock/MK64F12/fsl_clock_K64F12.o
 .text.CLOCK_SYS_GetPortFreq
                0x00000000       0x24 ./KSDK/platform/system/clock/MK64F12/fsl_clock_K64F12.o
 .text.CLOCK_SYS_GetMpuFreq
                0x00000000       0x24 ./KSDK/platform/system/clock/MK64F12/fsl_clock_K64F12.o
 .text.CLOCK_SYS_GetEwmFreq
                0x00000000       0x24 ./KSDK/platform/system/clock/MK64F12/fsl_clock_K64F12.o
 .text.CLOCK_SYS_GetFlexbusFreq
                0x00000000       0x24 ./KSDK/platform/system/clock/MK64F12/fsl_clock_K64F12.o
 .text.CLOCK_SYS_GetFtfFreq
                0x00000000       0x24 ./KSDK/platform/system/clock/MK64F12/fsl_clock_K64F12.o
 .text.CLOCK_SYS_GetCrcFreq
                0x00000000       0x24 ./KSDK/platform/system/clock/MK64F12/fsl_clock_K64F12.o
 .text.CLOCK_SYS_GetRngaFreq
                0x00000000       0x24 ./KSDK/platform/system/clock/MK64F12/fsl_clock_K64F12.o
 .text.CLOCK_SYS_GetAdcFreq
                0x00000000       0x24 ./KSDK/platform/system/clock/MK64F12/fsl_clock_K64F12.o
 .text.CLOCK_SYS_GetCmpFreq
                0x00000000       0x24 ./KSDK/platform/system/clock/MK64F12/fsl_clock_K64F12.o
 .text.CLOCK_SYS_GetVrefFreq
                0x00000000       0x24 ./KSDK/platform/system/clock/MK64F12/fsl_clock_K64F12.o
 .text.CLOCK_SYS_GetPdbFreq
                0x00000000       0x24 ./KSDK/platform/system/clock/MK64F12/fsl_clock_K64F12.o
 .text.CLOCK_SYS_GetFtmFreq
                0x00000000       0x24 ./KSDK/platform/system/clock/MK64F12/fsl_clock_K64F12.o
 .text.CLOCK_SYS_GetPitFreq
                0x00000000       0x24 ./KSDK/platform/system/clock/MK64F12/fsl_clock_K64F12.o
 .text.CLOCK_SYS_GetCmtFreq
                0x00000000       0x24 ./KSDK/platform/system/clock/MK64F12/fsl_clock_K64F12.o
 .text.CLOCK_SYS_GetEnetRmiiFreq
                0x00000000       0x54 ./KSDK/platform/system/clock/MK64F12/fsl_clock_K64F12.o
 .text.CLOCK_SYS_GetEnetTimeStampFreq
                0x00000000       0xb4 ./KSDK/platform/system/clock/MK64F12/fsl_clock_K64F12.o
 .text.CLOCK_SYS_GetUsbFreq
                0x00000000       0xd8 ./KSDK/platform/system/clock/MK64F12/fsl_clock_K64F12.o
 .text.CLOCK_SYS_GetUsbdcdFreq
                0x00000000       0x24 ./KSDK/platform/system/clock/MK64F12/fsl_clock_K64F12.o
 .text.CLOCK_SYS_GetSpiFreq
                0x00000000       0x24 ./KSDK/platform/system/clock/MK64F12/fsl_clock_K64F12.o
 .text.CLOCK_SYS_GetI2cFreq
                0x00000000       0x24 ./KSDK/platform/system/clock/MK64F12/fsl_clock_K64F12.o
 .text.CLOCK_SYS_GetUartFreq
                0x00000000       0x58 ./KSDK/platform/system/clock/MK64F12/fsl_clock_K64F12.o
 .text.CLOCK_SYS_GetSdhcFreq
                0x00000000       0xb4 ./KSDK/platform/system/clock/MK64F12/fsl_clock_K64F12.o
 .text.CLOCK_SYS_GetSaiFreq
                0x00000000       0x24 ./KSDK/platform/system/clock/MK64F12/fsl_clock_K64F12.o
 .text.CLOCK_SYS_GetGpioFreq
                0x00000000       0x24 ./KSDK/platform/system/clock/MK64F12/fsl_clock_K64F12.o
 .debug_info    0x00000000      0x9c2 ./KSDK/platform/system/clock/MK64F12/fsl_clock_K64F12.o
 .debug_abbrev  0x00000000      0x10e ./KSDK/platform/system/clock/MK64F12/fsl_clock_K64F12.o
 .debug_aranges
                0x00000000       0xe8 ./KSDK/platform/system/clock/MK64F12/fsl_clock_K64F12.o
 .debug_ranges  0x00000000       0xd8 ./KSDK/platform/system/clock/MK64F12/fsl_clock_K64F12.o
 .debug_line    0x00000000      0x45b ./KSDK/platform/system/clock/MK64F12/fsl_clock_K64F12.o
 .debug_str     0x00000000      0xafe ./KSDK/platform/system/clock/MK64F12/fsl_clock_K64F12.o
 .comment       0x00000000       0x71 ./KSDK/platform/system/clock/MK64F12/fsl_clock_K64F12.o
 .ARM.attributes
                0x00000000       0x39 ./KSDK/platform/system/clock/MK64F12/fsl_clock_K64F12.o
 .debug_frame   0x00000000      0x350 ./KSDK/platform/system/clock/MK64F12/fsl_clock_K64F12.o
 .text          0x00000000        0x0 ./KSDK/platform/system/clock/fsl_clock_manager.o
 .data          0x00000000        0x0 ./KSDK/platform/system/clock/fsl_clock_manager.o
 .bss           0x00000000        0x0 ./KSDK/platform/system/clock/fsl_clock_manager.o
 .rodata.g_mcgBaseAddr
                0x00000000        0x4 ./KSDK/platform/system/clock/fsl_clock_manager.o
 .text.CLOCK_SYS_GetSysClkFreq
                0x00000000       0x8c ./KSDK/platform/system/clock/fsl_clock_manager.o
 .text.CLOCK_SYS_GetFreq
                0x00000000      0x164 ./KSDK/platform/system/clock/fsl_clock_manager.o
 .text.CLOCK_SYS_SetSource
                0x00000000       0x3c ./KSDK/platform/system/clock/fsl_clock_manager.o
 .text.CLOCK_SYS_GetSource
                0x00000000       0x38 ./KSDK/platform/system/clock/fsl_clock_manager.o
 .text.CLOCK_SYS_SetDivider
                0x00000000       0x38 ./KSDK/platform/system/clock/fsl_clock_manager.o
 .text.CLOCK_SYS_GetDivider
                0x00000000       0x38 ./KSDK/platform/system/clock/fsl_clock_manager.o
 .text          0x00000000        0x0 ./KSDK/platform/startup/MK64F12/system_MK64F12.o
 .data          0x00000000        0x0 ./KSDK/platform/startup/MK64F12/system_MK64F12.o
 .bss           0x00000000        0x0 ./KSDK/platform/startup/MK64F12/system_MK64F12.o
 .text.SystemCoreClockUpdate
                0x00000000      0x270 ./KSDK/platform/startup/MK64F12/system_MK64F12.o
 .text          0x00000000        0x0 ./KSDK/platform/osa/src/fsl_os_abstraction_ucosiii.o
 .data          0x00000000        0x0 ./KSDK/platform/osa/src/fsl_os_abstraction_ucosiii.o
 .bss           0x00000000        0x0 ./KSDK/platform/osa/src/fsl_os_abstraction_ucosiii.o
 .text.OSA_TaskCreate
                0x00000000       0x78 ./KSDK/platform/osa/src/fsl_os_abstraction_ucosiii.o
 .text.OSA_TaskDestroy
                0x00000000       0x28 ./KSDK/platform/osa/src/fsl_os_abstraction_ucosiii.o
 .text.OSA_TaskYield
                0x00000000       0x24 ./KSDK/platform/osa/src/fsl_os_abstraction_ucosiii.o
 .text.OSA_TaskGetHandler
                0x00000000       0x18 ./KSDK/platform/osa/src/fsl_os_abstraction_ucosiii.o
 .text.OSA_TaskGetPriority
                0x00000000       0x20 ./KSDK/platform/osa/src/fsl_os_abstraction_ucosiii.o
 .text.OSA_TaskSetPriority
                0x00000000       0x38 ./KSDK/platform/osa/src/fsl_os_abstraction_ucosiii.o
 .text.wait_timeout_msec_to_tick
                0x00000000       0x58 ./KSDK/platform/osa/src/fsl_os_abstraction_ucosiii.o
 .rodata        0x00000000       0x28 ./KSDK/platform/osa/src/fsl_os_abstraction_ucosiii.o
 .text.OSA_SemaCreate
                0x00000000       0x34 ./KSDK/platform/osa/src/fsl_os_abstraction_ucosiii.o
 .text.OSA_SemaWait
                0x00000000       0x6c ./KSDK/platform/osa/src/fsl_os_abstraction_ucosiii.o
 .text.OSA_SemaPost
                0x00000000       0x2c ./KSDK/platform/osa/src/fsl_os_abstraction_ucosiii.o
 .text.OSA_SemaDestroy
                0x00000000       0x2c ./KSDK/platform/osa/src/fsl_os_abstraction_ucosiii.o
 .text.OSA_MutexCreate
                0x00000000       0x30 ./KSDK/platform/osa/src/fsl_os_abstraction_ucosiii.o
 .text.OSA_MutexLock
                0x00000000       0x6c ./KSDK/platform/osa/src/fsl_os_abstraction_ucosiii.o
 .text.OSA_MutexUnlock
                0x00000000       0x2c ./KSDK/platform/osa/src/fsl_os_abstraction_ucosiii.o
 .text.OSA_MutexDestroy
                0x00000000       0x2c ./KSDK/platform/osa/src/fsl_os_abstraction_ucosiii.o
 .text.OSA_EventCreate
                0x00000000       0x3c ./KSDK/platform/osa/src/fsl_os_abstraction_ucosiii.o
 .text.OSA_EventWait
                0x00000000       0x98 ./KSDK/platform/osa/src/fsl_os_abstraction_ucosiii.o
 .text.OSA_EventSet
                0x00000000       0x30 ./KSDK/platform/osa/src/fsl_os_abstraction_ucosiii.o
 .text.OSA_EventClear
                0x00000000       0x30 ./KSDK/platform/osa/src/fsl_os_abstraction_ucosiii.o
 .text.OSA_EventDestroy
                0x00000000       0x2c ./KSDK/platform/osa/src/fsl_os_abstraction_ucosiii.o
 .text.OSA_MsgQCreate
                0x00000000       0x80 ./KSDK/platform/osa/src/fsl_os_abstraction_ucosiii.o
 .text.OSA_MsgQPut
                0x00000000       0x9c ./KSDK/platform/osa/src/fsl_os_abstraction_ucosiii.o
 .text.OSA_MsgQGet
                0x00000000       0xb0 ./KSDK/platform/osa/src/fsl_os_abstraction_ucosiii.o
 .text.OSA_MsgQDestroy
                0x00000000       0x44 ./KSDK/platform/osa/src/fsl_os_abstraction_ucosiii.o
 .text.OSA_MemAlloc
                0x00000000       0x30 ./KSDK/platform/osa/src/fsl_os_abstraction_ucosiii.o
 .text.OSA_MemAllocZero
                0x00000000       0x34 ./KSDK/platform/osa/src/fsl_os_abstraction_ucosiii.o
 .text.OSA_MemFree
                0x00000000       0x2c ./KSDK/platform/osa/src/fsl_os_abstraction_ucosiii.o
 .text.OSA_TimeDelay
                0x00000000       0x24 ./KSDK/platform/osa/src/fsl_os_abstraction_ucosiii.o
 .text.OSA_TimeGetMsec
                0x00000000       0x30 ./KSDK/platform/osa/src/fsl_os_abstraction_ucosiii.o
 .text.OSA_InstallIntHandler
                0x00000000       0x24 ./KSDK/platform/osa/src/fsl_os_abstraction_ucosiii.o
 .text.OSA_EnterCritical
                0x00000000       0x28 ./KSDK/platform/osa/src/fsl_os_abstraction_ucosiii.o
 .text.OSA_ExitCritical
                0x00000000       0x28 ./KSDK/platform/osa/src/fsl_os_abstraction_ucosiii.o
 .text          0x00000000        0x0 ./KSDK/platform/hal/uart/fsl_uart_hal.o
 .data          0x00000000        0x0 ./KSDK/platform/hal/uart/fsl_uart_hal.o
 .bss           0x00000000        0x0 ./KSDK/platform/hal/uart/fsl_uart_hal.o
 .text.UART_HAL_GetReceiverWakeupMethod
                0x00000000       0x24 ./KSDK/platform/hal/uart/fsl_uart_hal.o
 .text.UART_HAL_Init
                0x00000000       0x98 ./KSDK/platform/hal/uart/fsl_uart_hal.o
 .text.UART_HAL_SetBaudRate
                0x00000000       0xa4 ./KSDK/platform/hal/uart/fsl_uart_hal.o
 .rodata        0x00000000       0x84 ./KSDK/platform/hal/uart/fsl_uart_hal.o
 .text.UART_HAL_SetBaudRateDivisor
                0x00000000       0x68 ./KSDK/platform/hal/uart/fsl_uart_hal.o
 .text.UART_HAL_SetTxRxInversionCmd
                0x00000000       0x3c ./KSDK/platform/hal/uart/fsl_uart_hal.o
 .text.UART_HAL_Putchar
                0x00000000       0x24 ./KSDK/platform/hal/uart/fsl_uart_hal.o
 .text.UART_HAL_Putchar9
                0x00000000       0x44 ./KSDK/platform/hal/uart/fsl_uart_hal.o
 .text.UART_HAL_Getchar
                0x00000000       0x28 ./KSDK/platform/hal/uart/fsl_uart_hal.o
 .text.UART_HAL_Getchar9
                0x00000000       0x48 ./KSDK/platform/hal/uart/fsl_uart_hal.o
 .text.UART_HAL_SetIntMode
                0x00000000      0x12c ./KSDK/platform/hal/uart/fsl_uart_hal.o
 .text.UART_HAL_GetIntMode
                0x00000000       0xbc ./KSDK/platform/hal/uart/fsl_uart_hal.o
 .text.UART_HAL_ConfigureDma
                0x00000000       0xbc ./KSDK/platform/hal/uart/fsl_uart_hal.o
 .text.UART_HAL_IsTxdmaEnabled
                0x00000000       0x60 ./KSDK/platform/hal/uart/fsl_uart_hal.o
 .text.UART_HAL_IsRxdmaEnabled
                0x00000000       0x48 ./KSDK/platform/hal/uart/fsl_uart_hal.o
 .text.UART_HAL_GetStatusFlag
                0x00000000       0xc0 ./KSDK/platform/hal/uart/fsl_uart_hal.o
 .text.UART_HAL_ClearStatusFlag
                0x00000000      0x17c ./KSDK/platform/hal/uart/fsl_uart_hal.o
 .text.UART_HAL_ClearAllNonAutoclearStatusFlags
                0x00000000       0x60 ./KSDK/platform/hal/uart/fsl_uart_hal.o
 .text.UART_HAL_SetTxFifoCmd
                0x00000000       0x5c ./KSDK/platform/hal/uart/fsl_uart_hal.o
 .text.UART_HAL_SetRxFifoCmd
                0x00000000       0x5c ./KSDK/platform/hal/uart/fsl_uart_hal.o
 .text.UART_HAL_FlushTxFifo
                0x00000000       0x40 ./KSDK/platform/hal/uart/fsl_uart_hal.o
 .text.UART_HAL_FlushRxFifo
                0x00000000       0x40 ./KSDK/platform/hal/uart/fsl_uart_hal.o
 .text.UART_HAL_SetTxFifoWatermark
                0x00000000       0x3c ./KSDK/platform/hal/uart/fsl_uart_hal.o
 .text.UART_HAL_SetRxFifoWatermark
                0x00000000       0x3c ./KSDK/platform/hal/uart/fsl_uart_hal.o
 .text.UART_HAL_PutReceiverInStandbyMode
                0x00000000       0x54 ./KSDK/platform/hal/uart/fsl_uart_hal.o
 .text.UART_HAL_ConfigIdleLineDetect
                0x00000000       0x3c ./KSDK/platform/hal/uart/fsl_uart_hal.o
 .text.UART_HAL_SetMatchAddress
                0x00000000       0x48 ./KSDK/platform/hal/uart/fsl_uart_hal.o
 .text.UART_HAL_SetInfraredOperation
                0x00000000       0x4c ./KSDK/platform/hal/uart/fsl_uart_hal.o
 .rodata.__func__.14881
                0x00000000       0x1c ./KSDK/platform/hal/uart/fsl_uart_hal.o
 .debug_info    0x00000000     0x1301 ./KSDK/platform/hal/uart/fsl_uart_hal.o
 .debug_abbrev  0x00000000      0x27b ./KSDK/platform/hal/uart/fsl_uart_hal.o
 .debug_aranges
                0x00000000       0xf0 ./KSDK/platform/hal/uart/fsl_uart_hal.o
 .debug_ranges  0x00000000       0xe0 ./KSDK/platform/hal/uart/fsl_uart_hal.o
 .debug_line    0x00000000      0x51a ./KSDK/platform/hal/uart/fsl_uart_hal.o
 .debug_str     0x00000000     0x102d ./KSDK/platform/hal/uart/fsl_uart_hal.o
 .comment       0x00000000       0x71 ./KSDK/platform/hal/uart/fsl_uart_hal.o
 .ARM.attributes
                0x00000000       0x39 ./KSDK/platform/hal/uart/fsl_uart_hal.o
 .debug_frame   0x00000000      0x310 ./KSDK/platform/hal/uart/fsl_uart_hal.o
 .text          0x00000000        0x0 ./KSDK/platform/hal/sim/MK64F12/fsl_sim_hal_K64F12.o
 .data          0x00000000        0x0 ./KSDK/platform/hal/sim/MK64F12/fsl_sim_hal_K64F12.o
 .bss           0x00000000        0x0 ./KSDK/platform/hal/sim/MK64F12/fsl_sim_hal_K64F12.o
 .rodata.kClockNameConfigTable
                0x00000000       0x14 ./KSDK/platform/hal/sim/MK64F12/fsl_sim_hal_K64F12.o
 .text.SIM_HAL_EnableDmaClock
                0x00000000       0x28 ./KSDK/platform/hal/sim/MK64F12/fsl_sim_hal_K64F12.o
 .text.SIM_HAL_DisableDmaClock
                0x00000000       0x28 ./KSDK/platform/hal/sim/MK64F12/fsl_sim_hal_K64F12.o
 .text.SIM_HAL_GetDmaGateCmd
                0x00000000       0x30 ./KSDK/platform/hal/sim/MK64F12/fsl_sim_hal_K64F12.o
 .text.SIM_HAL_EnableDmamuxClock
                0x00000000       0x28 ./KSDK/platform/hal/sim/MK64F12/fsl_sim_hal_K64F12.o
 .text.SIM_HAL_DisableDmamuxClock
                0x00000000       0x28 ./KSDK/platform/hal/sim/MK64F12/fsl_sim_hal_K64F12.o
 .text.SIM_HAL_GetDmamuxGateCmd
                0x00000000       0x30 ./KSDK/platform/hal/sim/MK64F12/fsl_sim_hal_K64F12.o
 .text.SIM_HAL_DisablePortClock
                0x00000000       0x8c ./KSDK/platform/hal/sim/MK64F12/fsl_sim_hal_K64F12.o
 .text.SIM_HAL_GetPortGateCmd
                0x00000000       0xc0 ./KSDK/platform/hal/sim/MK64F12/fsl_sim_hal_K64F12.o
 .text.SIM_HAL_EnableMpuClock
                0x00000000       0x28 ./KSDK/platform/hal/sim/MK64F12/fsl_sim_hal_K64F12.o
 .text.SIM_HAL_DisableMpuClock
                0x00000000       0x28 ./KSDK/platform/hal/sim/MK64F12/fsl_sim_hal_K64F12.o
 .text.SIM_HAL_GetMpuGateCmd
                0x00000000       0x30 ./KSDK/platform/hal/sim/MK64F12/fsl_sim_hal_K64F12.o
 .text.SIM_HAL_EnableEwmClock
                0x00000000       0x28 ./KSDK/platform/hal/sim/MK64F12/fsl_sim_hal_K64F12.o
 .text.SIM_HAL_DisableEwmClock
                0x00000000       0x28 ./KSDK/platform/hal/sim/MK64F12/fsl_sim_hal_K64F12.o
 .text.SIM_HAL_GetEwmGateCmd
                0x00000000       0x30 ./KSDK/platform/hal/sim/MK64F12/fsl_sim_hal_K64F12.o
 .text.SIM_HAL_EnableFlexbusClock
                0x00000000       0x24 ./KSDK/platform/hal/sim/MK64F12/fsl_sim_hal_K64F12.o
 .text.SIM_HAL_DisableFlexbusClock
                0x00000000       0x24 ./KSDK/platform/hal/sim/MK64F12/fsl_sim_hal_K64F12.o
 .text.SIM_HAL_GetFlexbusGateCmd
                0x00000000       0x30 ./KSDK/platform/hal/sim/MK64F12/fsl_sim_hal_K64F12.o
 .text.SIM_HAL_EnableFtfClock
                0x00000000       0x24 ./KSDK/platform/hal/sim/MK64F12/fsl_sim_hal_K64F12.o
 .text.SIM_HAL_DisableFtfClock
                0x00000000       0x24 ./KSDK/platform/hal/sim/MK64F12/fsl_sim_hal_K64F12.o
 .text.SIM_HAL_GetFtfGateCmd
                0x00000000       0x30 ./KSDK/platform/hal/sim/MK64F12/fsl_sim_hal_K64F12.o
 .text.SIM_HAL_EnableCrcClock
                0x00000000       0x28 ./KSDK/platform/hal/sim/MK64F12/fsl_sim_hal_K64F12.o
 .text.SIM_HAL_DisableCrcClock
                0x00000000       0x28 ./KSDK/platform/hal/sim/MK64F12/fsl_sim_hal_K64F12.o
 .text.SIM_HAL_GetCrcGateCmd
                0x00000000       0x30 ./KSDK/platform/hal/sim/MK64F12/fsl_sim_hal_K64F12.o
 .text.SIM_HAL_EnableRngaClock
                0x00000000       0x28 ./KSDK/platform/hal/sim/MK64F12/fsl_sim_hal_K64F12.o
 .text.SIM_HAL_DisableRngaClock
                0x00000000       0x28 ./KSDK/platform/hal/sim/MK64F12/fsl_sim_hal_K64F12.o
 .text.SIM_HAL_GetRngaGateCmd
                0x00000000       0x30 ./KSDK/platform/hal/sim/MK64F12/fsl_sim_hal_K64F12.o
 .text.SIM_HAL_EnableAdcClock
                0x00000000       0x48 ./KSDK/platform/hal/sim/MK64F12/fsl_sim_hal_K64F12.o
 .text.SIM_HAL_DisableAdcClock
                0x00000000       0x48 ./KSDK/platform/hal/sim/MK64F12/fsl_sim_hal_K64F12.o
 .text.SIM_HAL_GetAdcGateCmd
                0x00000000       0x68 ./KSDK/platform/hal/sim/MK64F12/fsl_sim_hal_K64F12.o
 .text.SIM_HAL_EnableCmpClock
                0x00000000       0x28 ./KSDK/platform/hal/sim/MK64F12/fsl_sim_hal_K64F12.o
 .text.SIM_HAL_DisableCmpClock
                0x00000000       0x28 ./KSDK/platform/hal/sim/MK64F12/fsl_sim_hal_K64F12.o
 .text.SIM_HAL_GetCmpGateCmd
                0x00000000       0x30 ./KSDK/platform/hal/sim/MK64F12/fsl_sim_hal_K64F12.o
 .text.SIM_HAL_EnableDacClock
                0x00000000       0x44 ./KSDK/platform/hal/sim/MK64F12/fsl_sim_hal_K64F12.o
 .text.SIM_HAL_DisableDacClock
                0x00000000       0x44 ./KSDK/platform/hal/sim/MK64F12/fsl_sim_hal_K64F12.o
 .text.SIM_HAL_GetDacGateCmd
                0x00000000       0x64 ./KSDK/platform/hal/sim/MK64F12/fsl_sim_hal_K64F12.o
 .text.SIM_HAL_EnableVrefClock
                0x00000000       0x28 ./KSDK/platform/hal/sim/MK64F12/fsl_sim_hal_K64F12.o
 .text.SIM_HAL_DisableVrefClock
                0x00000000       0x28 ./KSDK/platform/hal/sim/MK64F12/fsl_sim_hal_K64F12.o
 .text.SIM_HAL_GetVrefGateCmd
                0x00000000       0x30 ./KSDK/platform/hal/sim/MK64F12/fsl_sim_hal_K64F12.o
 .text.SIM_HAL_EnableSaiClock
                0x00000000       0x28 ./KSDK/platform/hal/sim/MK64F12/fsl_sim_hal_K64F12.o
 .text.SIM_HAL_DisableSaiClock
                0x00000000       0x28 ./KSDK/platform/hal/sim/MK64F12/fsl_sim_hal_K64F12.o
 .text.SIM_HAL_GetSaiGateCmd
                0x00000000       0x30 ./KSDK/platform/hal/sim/MK64F12/fsl_sim_hal_K64F12.o
 .text.SIM_HAL_EnablePdbClock
                0x00000000       0x28 ./KSDK/platform/hal/sim/MK64F12/fsl_sim_hal_K64F12.o
 .text.SIM_HAL_DisablePdbClock
                0x00000000       0x28 ./KSDK/platform/hal/sim/MK64F12/fsl_sim_hal_K64F12.o
 .text.SIM_HAL_GetPdbGateCmd
                0x00000000       0x30 ./KSDK/platform/hal/sim/MK64F12/fsl_sim_hal_K64F12.o
 .text.SIM_HAL_EnableFtmClock
                0x00000000       0x80 ./KSDK/platform/hal/sim/MK64F12/fsl_sim_hal_K64F12.o
 .text.SIM_HAL_DisableFtmClock
                0x00000000       0x80 ./KSDK/platform/hal/sim/MK64F12/fsl_sim_hal_K64F12.o
 .text.SIM_HAL_GetFtmGateCmd
                0x00000000       0xac ./KSDK/platform/hal/sim/MK64F12/fsl_sim_hal_K64F12.o
 .text.SIM_HAL_EnablePitClock
                0x00000000       0x28 ./KSDK/platform/hal/sim/MK64F12/fsl_sim_hal_K64F12.o
 .text.SIM_HAL_DisablePitClock
                0x00000000       0x28 ./KSDK/platform/hal/sim/MK64F12/fsl_sim_hal_K64F12.o
 .text.SIM_HAL_GetPitGateCmd
                0x00000000       0x30 ./KSDK/platform/hal/sim/MK64F12/fsl_sim_hal_K64F12.o
 .text.SIM_HAL_EnableLptimerClock
                0x00000000       0x24 ./KSDK/platform/hal/sim/MK64F12/fsl_sim_hal_K64F12.o
 .text.SIM_HAL_DisableLptimerClock
                0x00000000       0x24 ./KSDK/platform/hal/sim/MK64F12/fsl_sim_hal_K64F12.o
 .text.SIM_HAL_GetLptimerGateCmd
                0x00000000       0x30 ./KSDK/platform/hal/sim/MK64F12/fsl_sim_hal_K64F12.o
 .text.SIM_HAL_EnableCmtClock
                0x00000000       0x28 ./KSDK/platform/hal/sim/MK64F12/fsl_sim_hal_K64F12.o
 .text.SIM_HAL_DisableCmtClock
                0x00000000       0x28 ./KSDK/platform/hal/sim/MK64F12/fsl_sim_hal_K64F12.o
 .text.SIM_HAL_GetCmtGateCmd
                0x00000000       0x30 ./KSDK/platform/hal/sim/MK64F12/fsl_sim_hal_K64F12.o
 .text.SIM_HAL_EnableRtcClock
                0x00000000       0x28 ./KSDK/platform/hal/sim/MK64F12/fsl_sim_hal_K64F12.o
 .text.SIM_HAL_DisableRtcClock
                0x00000000       0x28 ./KSDK/platform/hal/sim/MK64F12/fsl_sim_hal_K64F12.o
 .text.SIM_HAL_GetRtcGateCmd
                0x00000000       0x30 ./KSDK/platform/hal/sim/MK64F12/fsl_sim_hal_K64F12.o
 .text.SIM_HAL_EnableEnetClock
                0x00000000       0x24 ./KSDK/platform/hal/sim/MK64F12/fsl_sim_hal_K64F12.o
 .text.SIM_HAL_DisableEnetClock
                0x00000000       0x24 ./KSDK/platform/hal/sim/MK64F12/fsl_sim_hal_K64F12.o
 .text.SIM_HAL_GetEnetGateCmd
                0x00000000       0x30 ./KSDK/platform/hal/sim/MK64F12/fsl_sim_hal_K64F12.o
 .text.SIM_HAL_EnableUsbClock
                0x00000000       0x28 ./KSDK/platform/hal/sim/MK64F12/fsl_sim_hal_K64F12.o
 .text.SIM_HAL_DisableUsbClock
                0x00000000       0x28 ./KSDK/platform/hal/sim/MK64F12/fsl_sim_hal_K64F12.o
 .text.SIM_HAL_GetUsbGateCmd
                0x00000000       0x30 ./KSDK/platform/hal/sim/MK64F12/fsl_sim_hal_K64F12.o
 .text.SIM_HAL_EnableUsbdcdClock
                0x00000000       0x28 ./KSDK/platform/hal/sim/MK64F12/fsl_sim_hal_K64F12.o
 .text.SIM_HAL_DisableUsbdcdClock
                0x00000000       0x28 ./KSDK/platform/hal/sim/MK64F12/fsl_sim_hal_K64F12.o
 .text.SIM_HAL_GetUsbdcdGateCmd
                0x00000000       0x30 ./KSDK/platform/hal/sim/MK64F12/fsl_sim_hal_K64F12.o
 .text.SIM_HAL_EnableFlexcanClock
                0x00000000       0x28 ./KSDK/platform/hal/sim/MK64F12/fsl_sim_hal_K64F12.o
 .text.SIM_HAL_DisableFlexcanClock
                0x00000000       0x28 ./KSDK/platform/hal/sim/MK64F12/fsl_sim_hal_K64F12.o
 .text.SIM_HAL_GetFlexcanGateCmd
                0x00000000       0x30 ./KSDK/platform/hal/sim/MK64F12/fsl_sim_hal_K64F12.o
 .text.SIM_HAL_EnableSpiClock
                0x00000000       0x5c ./KSDK/platform/hal/sim/MK64F12/fsl_sim_hal_K64F12.o
 .text.SIM_HAL_DisableSpiClock
                0x00000000       0x5c ./KSDK/platform/hal/sim/MK64F12/fsl_sim_hal_K64F12.o
 .text.SIM_HAL_GetSpiGateCmd
                0x00000000       0x84 ./KSDK/platform/hal/sim/MK64F12/fsl_sim_hal_K64F12.o
 .text.SIM_HAL_EnableI2cClock
                0x00000000       0x5c ./KSDK/platform/hal/sim/MK64F12/fsl_sim_hal_K64F12.o
 .text.SIM_HAL_DisableI2cClock
                0x00000000       0x5c ./KSDK/platform/hal/sim/MK64F12/fsl_sim_hal_K64F12.o
 .text.SIM_HAL_GetI2cGateCmd
                0x00000000       0x84 ./KSDK/platform/hal/sim/MK64F12/fsl_sim_hal_K64F12.o
 .text.SIM_HAL_EnableUartClock
                0x00000000       0xa4 ./KSDK/platform/hal/sim/MK64F12/fsl_sim_hal_K64F12.o
 .text.SIM_HAL_DisableUartClock
                0x00000000       0xa4 ./KSDK/platform/hal/sim/MK64F12/fsl_sim_hal_K64F12.o
 .text.SIM_HAL_GetUartGateCmd
                0x00000000       0xe0 ./KSDK/platform/hal/sim/MK64F12/fsl_sim_hal_K64F12.o
 .text.SIM_HAL_EnableSdhcClock
                0x00000000       0x28 ./KSDK/platform/hal/sim/MK64F12/fsl_sim_hal_K64F12.o
 .text.SIM_HAL_DisableSdhcClock
                0x00000000       0x28 ./KSDK/platform/hal/sim/MK64F12/fsl_sim_hal_K64F12.o
 .text.SIM_HAL_GetSdhcGateCmd
                0x00000000       0x30 ./KSDK/platform/hal/sim/MK64F12/fsl_sim_hal_K64F12.o
 .text          0x00000000        0x0 ./KSDK/platform/hal/sim/fsl_sim_hal.o
 .data          0x00000000        0x0 ./KSDK/platform/hal/sim/fsl_sim_hal.o
 .bss           0x00000000        0x0 ./KSDK/platform/hal/sim/fsl_sim_hal.o
 .rodata        0x00000000      0x130 ./KSDK/platform/hal/sim/fsl_sim_hal.o
 .text.CLOCK_HAL_SetSource
                0x00000000      0x190 ./KSDK/platform/hal/sim/fsl_sim_hal.o
 .text.CLOCK_HAL_GetSource
                0x00000000      0x168 ./KSDK/platform/hal/sim/fsl_sim_hal.o
 .text.CLOCK_HAL_SetDivider
                0x00000000      0x15c ./KSDK/platform/hal/sim/fsl_sim_hal.o
 .text.CLOCK_HAL_SetOutDividers
                0x00000000       0x5c ./KSDK/platform/hal/sim/fsl_sim_hal.o
 .text.CLOCK_HAL_GetDivider
                0x00000000      0x12c ./KSDK/platform/hal/sim/fsl_sim_hal.o
 .text.SIM_HAL_SetAdcAlternativeTriggerCmd
                0x00000000       0x68 ./KSDK/platform/hal/sim/fsl_sim_hal.o
 .text.SIM_HAL_GetAdcAlternativeTriggerCmd
                0x00000000       0x80 ./KSDK/platform/hal/sim/fsl_sim_hal.o
 .text.SIM_HAL_SetAdcPreTriggerMode
                0x00000000       0x68 ./KSDK/platform/hal/sim/fsl_sim_hal.o
 .text.SIM_HAL_GetAdcPreTriggerMode
                0x00000000       0x6c ./KSDK/platform/hal/sim/fsl_sim_hal.o
 .text.SIM_HAL_SetAdcTriggerMode
                0x00000000       0x8c ./KSDK/platform/hal/sim/fsl_sim_hal.o
 .text.SIM_HAL_GetAdcTriggerMode
                0x00000000       0x70 ./KSDK/platform/hal/sim/fsl_sim_hal.o
 .text.SIM_HAL_SetUartRxSrcMode
                0x00000000       0x8c ./KSDK/platform/hal/sim/fsl_sim_hal.o
 .text.SIM_HAL_GetUartRxSrcMode
                0x00000000       0x74 ./KSDK/platform/hal/sim/fsl_sim_hal.o
 .text.SIM_HAL_SetUartTxSrcMode
                0x00000000       0x8c ./KSDK/platform/hal/sim/fsl_sim_hal.o
 .text.SIM_HAL_GetUartTxSrcMode
                0x00000000       0x70 ./KSDK/platform/hal/sim/fsl_sim_hal.o
 .text.SIM_HAL_SetFtmTriggerSrcMode
                0x00000000       0xb8 ./KSDK/platform/hal/sim/fsl_sim_hal.o
 .text.SIM_HAL_GetFtmTriggerSrcMode
                0x00000000       0xc4 ./KSDK/platform/hal/sim/fsl_sim_hal.o
 .text.SIM_HAL_SetFtmExternalClkPinMode
                0x00000000       0x9c ./KSDK/platform/hal/sim/fsl_sim_hal.o
 .text.SIM_HAL_GetFtmExternalClkPinMode
                0x00000000       0xa0 ./KSDK/platform/hal/sim/fsl_sim_hal.o
 .text.SIM_HAL_SetFtmChSrcMode
                0x00000000       0xa0 ./KSDK/platform/hal/sim/fsl_sim_hal.o
 .text.SIM_HAL_GetFtmChSrcMode
                0x00000000       0x8c ./KSDK/platform/hal/sim/fsl_sim_hal.o
 .text.SIM_HAL_SetFtmFaultSelMode
                0x00000000       0xcc ./KSDK/platform/hal/sim/fsl_sim_hal.o
 .text.SIM_HAL_GetFtmFaultSelMode
                0x00000000       0xd4 ./KSDK/platform/hal/sim/fsl_sim_hal.o
 .rodata.__func__.15208
                0x00000000       0x14 ./KSDK/platform/hal/sim/fsl_sim_hal.o
 .rodata.__func__.15226
                0x00000000       0x14 ./KSDK/platform/hal/sim/fsl_sim_hal.o
 .rodata.__func__.15244
                0x00000000       0x18 ./KSDK/platform/hal/sim/fsl_sim_hal.o
 .rodata.__func__.15268
                0x00000000       0x18 ./KSDK/platform/hal/sim/fsl_sim_hal.o
 .rodata.__func__.15283
                0x00000000       0x24 ./KSDK/platform/hal/sim/fsl_sim_hal.o
 .rodata.__func__.15293
                0x00000000       0x24 ./KSDK/platform/hal/sim/fsl_sim_hal.o
 .rodata.__func__.15303
                0x00000000       0x20 ./KSDK/platform/hal/sim/fsl_sim_hal.o
 .rodata.__func__.15313
                0x00000000       0x20 ./KSDK/platform/hal/sim/fsl_sim_hal.o
 .rodata.__func__.15323
                0x00000000       0x1c ./KSDK/platform/hal/sim/fsl_sim_hal.o
 .rodata.__func__.15333
                0x00000000       0x1c ./KSDK/platform/hal/sim/fsl_sim_hal.o
 .rodata.__func__.15343
                0x00000000       0x1c ./KSDK/platform/hal/sim/fsl_sim_hal.o
 .rodata.__func__.15353
                0x00000000       0x1c ./KSDK/platform/hal/sim/fsl_sim_hal.o
 .rodata.__func__.15363
                0x00000000       0x1c ./KSDK/platform/hal/sim/fsl_sim_hal.o
 .rodata.__func__.15373
                0x00000000       0x1c ./KSDK/platform/hal/sim/fsl_sim_hal.o
 .rodata.__func__.15384
                0x00000000       0x20 ./KSDK/platform/hal/sim/fsl_sim_hal.o
 .rodata.__func__.15403
                0x00000000       0x20 ./KSDK/platform/hal/sim/fsl_sim_hal.o
 .rodata.__func__.15421
                0x00000000       0x24 ./KSDK/platform/hal/sim/fsl_sim_hal.o
 .rodata.__func__.15433
                0x00000000       0x24 ./KSDK/platform/hal/sim/fsl_sim_hal.o
 .rodata.__func__.15446
                0x00000000       0x18 ./KSDK/platform/hal/sim/fsl_sim_hal.o
 .rodata.__func__.15463
                0x00000000       0x18 ./KSDK/platform/hal/sim/fsl_sim_hal.o
 .rodata.__func__.15480
                0x00000000       0x1c ./KSDK/platform/hal/sim/fsl_sim_hal.o
 .rodata.__func__.15498
                0x00000000       0x1c ./KSDK/platform/hal/sim/fsl_sim_hal.o
 .debug_info    0x00000000     0x12c2 ./KSDK/platform/hal/sim/fsl_sim_hal.o
 .debug_abbrev  0x00000000      0x1d8 ./KSDK/platform/hal/sim/fsl_sim_hal.o
 .debug_aranges
                0x00000000       0xd0 ./KSDK/platform/hal/sim/fsl_sim_hal.o
 .debug_ranges  0x00000000       0xc0 ./KSDK/platform/hal/sim/fsl_sim_hal.o
 .debug_line    0x00000000      0x5b1 ./KSDK/platform/hal/sim/fsl_sim_hal.o
 .debug_str     0x00000000      0xf7a ./KSDK/platform/hal/sim/fsl_sim_hal.o
 .comment       0x00000000       0x71 ./KSDK/platform/hal/sim/fsl_sim_hal.o
 .ARM.attributes
                0x00000000       0x39 ./KSDK/platform/hal/sim/fsl_sim_hal.o
 .debug_frame   0x00000000      0x2ec ./KSDK/platform/hal/sim/fsl_sim_hal.o
 .text          0x00000000        0x0 ./KSDK/platform/hal/port/fsl_port_hal.o
 .data          0x00000000        0x0 ./KSDK/platform/hal/port/fsl_port_hal.o
 .bss           0x00000000        0x0 ./KSDK/platform/hal/port/fsl_port_hal.o
 .text.PORT_HAL_SetLowGlobalPinCtrl
                0x00000000       0x30 ./KSDK/platform/hal/port/fsl_port_hal.o
 .text.PORT_HAL_SetHighGlobalPinCtrl
                0x00000000       0x30 ./KSDK/platform/hal/port/fsl_port_hal.o
 .debug_info    0x00000000      0x21d ./KSDK/platform/hal/port/fsl_port_hal.o
 .debug_abbrev  0x00000000       0xd2 ./KSDK/platform/hal/port/fsl_port_hal.o
 .debug_aranges
                0x00000000       0x28 ./KSDK/platform/hal/port/fsl_port_hal.o
 .debug_ranges  0x00000000       0x18 ./KSDK/platform/hal/port/fsl_port_hal.o
 .debug_line    0x00000000      0x1d8 ./KSDK/platform/hal/port/fsl_port_hal.o
 .debug_str     0x00000000      0x2e7 ./KSDK/platform/hal/port/fsl_port_hal.o
 .comment       0x00000000       0x71 ./KSDK/platform/hal/port/fsl_port_hal.o
 .ARM.attributes
                0x00000000       0x39 ./KSDK/platform/hal/port/fsl_port_hal.o
 .debug_frame   0x00000000       0x48 ./KSDK/platform/hal/port/fsl_port_hal.o
 .text          0x00000000        0x0 ./KSDK/platform/hal/mcg/fsl_mcg_hal.o
 .data          0x00000000        0x0 ./KSDK/platform/hal/mcg/fsl_mcg_hal.o
 .bss           0x00000000        0x0 ./KSDK/platform/hal/mcg/fsl_mcg_hal.o
 .text.CLOCK_HAL_GetClkSrcMode
                0x00000000       0x20 ./KSDK/platform/hal/mcg/fsl_mcg_hal.o
 .text.CLOCK_HAL_GetFllExternalRefDivider
                0x00000000       0x24 ./KSDK/platform/hal/mcg/fsl_mcg_hal.o
 .text.CLOCK_HAL_GetInternalRefSelMode
                0x00000000       0x24 ./KSDK/platform/hal/mcg/fsl_mcg_hal.o
 .text.CLOCK_HAL_GetRange0Mode
                0x00000000       0x24 ./KSDK/platform/hal/mcg/fsl_mcg_hal.o
 .text.CLOCK_HAL_GetInternalRefClkSelMode
                0x00000000       0x24 ./KSDK/platform/hal/mcg/fsl_mcg_hal.o
 .text.CLOCK_HAL_GetDmx32
                0x00000000       0x24 ./KSDK/platform/hal/mcg/fsl_mcg_hal.o
 .text.CLOCK_HAL_GetDigitalControlledOscRangeMode
                0x00000000       0x24 ./KSDK/platform/hal/mcg/fsl_mcg_hal.o
 .text.CLOCK_HAL_GetPllExternalRefDivider0
                0x00000000       0x20 ./KSDK/platform/hal/mcg/fsl_mcg_hal.o
 .text.CLOCK_HAL_GetPllSelMode
                0x00000000       0x24 ./KSDK/platform/hal/mcg/fsl_mcg_hal.o
 .text.CLOCK_HAL_GetVoltCtrlOscDivider0
                0x00000000       0x20 ./KSDK/platform/hal/mcg/fsl_mcg_hal.o
 .text.CLOCK_HAL_GetFastClkInternalRefDivider
                0x00000000       0x24 ./KSDK/platform/hal/mcg/fsl_mcg_hal.o
 .text.CLOCK_HAL_GetOscselMode
                0x00000000       0x20 ./KSDK/platform/hal/mcg/fsl_mcg_hal.o
 .text.CLOCK_HAL_GetFllRefClk
                0x00000000       0x9c ./KSDK/platform/hal/mcg/fsl_mcg_hal.o
 .text.CLOCK_HAL_GetFllClk
                0x00000000       0xf4 ./KSDK/platform/hal/mcg/fsl_mcg_hal.o
 .text.CLOCK_HAL_GetPll0Clk
                0x00000000       0x7c ./KSDK/platform/hal/mcg/fsl_mcg_hal.o
 .text.CLOCK_HAL_GetInternalRefClk
                0x00000000       0x3c ./KSDK/platform/hal/mcg/fsl_mcg_hal.o
 .text.CLOCK_HAL_GetOutClk
                0x00000000       0xa8 ./KSDK/platform/hal/mcg/fsl_mcg_hal.o
 .debug_info    0x00000000      0xaa8 ./KSDK/platform/hal/mcg/fsl_mcg_hal.o
 .debug_abbrev  0x00000000      0x1ad ./KSDK/platform/hal/mcg/fsl_mcg_hal.o
 .debug_aranges
                0x00000000       0xa0 ./KSDK/platform/hal/mcg/fsl_mcg_hal.o
 .debug_ranges  0x00000000       0x90 ./KSDK/platform/hal/mcg/fsl_mcg_hal.o
 .debug_line    0x00000000      0x365 ./KSDK/platform/hal/mcg/fsl_mcg_hal.o
 .debug_str     0x00000000      0xd33 ./KSDK/platform/hal/mcg/fsl_mcg_hal.o
 .comment       0x00000000       0x71 ./KSDK/platform/hal/mcg/fsl_mcg_hal.o
 .ARM.attributes
                0x00000000       0x39 ./KSDK/platform/hal/mcg/fsl_mcg_hal.o
 .debug_frame   0x00000000      0x200 ./KSDK/platform/hal/mcg/fsl_mcg_hal.o
 .text          0x00000000        0x0 ./KSDK/platform/hal/gpio/fsl_gpio_hal.o
 .data          0x00000000        0x0 ./KSDK/platform/hal/gpio/fsl_gpio_hal.o
 .bss           0x00000000        0x0 ./KSDK/platform/hal/gpio/fsl_gpio_hal.o
 .text          0x00000000        0x0 ./KSDK/platform/drivers/uart/src/fsl_uart_driver.o
 .data          0x00000000        0x0 ./KSDK/platform/drivers/uart/src/fsl_uart_driver.o
 .bss           0x00000000        0x0 ./KSDK/platform/drivers/uart/src/fsl_uart_driver.o
 .text.NVIC_EnableIRQ
                0x00000000       0x30 ./KSDK/platform/drivers/uart/src/fsl_uart_driver.o
 .text.NVIC_DisableIRQ
                0x00000000       0x34 ./KSDK/platform/drivers/uart/src/fsl_uart_driver.o
 .text.UART_HAL_EnableTransmitter
                0x00000000       0x24 ./KSDK/platform/drivers/uart/src/fsl_uart_driver.o
 .text.UART_HAL_DisableTransmitter
                0x00000000       0x24 ./KSDK/platform/drivers/uart/src/fsl_uart_driver.o
 .text.UART_HAL_EnableReceiver
                0x00000000       0x24 ./KSDK/platform/drivers/uart/src/fsl_uart_driver.o
 .text.UART_HAL_DisableReceiver
                0x00000000       0x24 ./KSDK/platform/drivers/uart/src/fsl_uart_driver.o
 .text.UART_HAL_SetBitCountPerChar
                0x00000000       0x28 ./KSDK/platform/drivers/uart/src/fsl_uart_driver.o
 .text.UART_HAL_SetParityMode
                0x00000000       0x2c ./KSDK/platform/drivers/uart/src/fsl_uart_driver.o
 .text.UART_HAL_SetStopBitCount
                0x00000000       0x24 ./KSDK/platform/drivers/uart/src/fsl_uart_driver.o
 .text.UART_HAL_SetTxDataRegEmptyIntCmd
                0x00000000       0x28 ./KSDK/platform/drivers/uart/src/fsl_uart_driver.o
 .text.UART_HAL_GetTxDataRegEmptyIntCmd
                0x00000000       0x30 ./KSDK/platform/drivers/uart/src/fsl_uart_driver.o
 .text.UART_HAL_SetRxDataRegFullIntCmd
                0x00000000       0x28 ./KSDK/platform/drivers/uart/src/fsl_uart_driver.o
 .text.UART_HAL_GetRxDataRegFullIntCmd
                0x00000000       0x30 ./KSDK/platform/drivers/uart/src/fsl_uart_driver.o
 .text.UART_HAL_IsTxDataRegEmpty
                0x00000000       0x30 ./KSDK/platform/drivers/uart/src/fsl_uart_driver.o
 .text.UART_HAL_IsTxComplete
                0x00000000       0x30 ./KSDK/platform/drivers/uart/src/fsl_uart_driver.o
 .text.UART_HAL_IsRxDataRegFull
                0x00000000       0x30 ./KSDK/platform/drivers/uart/src/fsl_uart_driver.o
 .text.UART_HAL_GetTxFifoSize
                0x00000000       0x24 ./KSDK/platform/drivers/uart/src/fsl_uart_driver.o
 .text.UART_HAL_GetTxDatawordCountInFifo
                0x00000000       0x1c ./KSDK/platform/drivers/uart/src/fsl_uart_driver.o
 .text.UART_HAL_GetRxDatawordCountInFifo
                0x00000000       0x1c ./KSDK/platform/drivers/uart/src/fsl_uart_driver.o
 .text.CLOCK_SYS_EnableUartClock
                0x00000000       0x20 ./KSDK/platform/drivers/uart/src/fsl_uart_driver.o
 .text.CLOCK_SYS_DisableUartClock
                0x00000000       0x20 ./KSDK/platform/drivers/uart/src/fsl_uart_driver.o
 .rodata        0x00000000      0x148 ./KSDK/platform/drivers/uart/src/fsl_uart_driver.o
 .text.INT_SYS_EnableIRQ
                0x00000000       0x54 ./KSDK/platform/drivers/uart/src/fsl_uart_driver.o
 .text.INT_SYS_DisableIRQ
                0x00000000       0x54 ./KSDK/platform/drivers/uart/src/fsl_uart_driver.o
 .text.UART_DRV_Init
                0x00000000      0x170 ./KSDK/platform/drivers/uart/src/fsl_uart_driver.o
 .text.UART_DRV_Deinit
                0x00000000       0xac ./KSDK/platform/drivers/uart/src/fsl_uart_driver.o
 .text.UART_DRV_InstallRxCallback
                0x00000000       0x54 ./KSDK/platform/drivers/uart/src/fsl_uart_driver.o
 .text.UART_DRV_CompleteSendData
                0x00000000       0x6c ./KSDK/platform/drivers/uart/src/fsl_uart_driver.o
 .text.UART_DRV_StartSendData
                0x00000000       0xcc ./KSDK/platform/drivers/uart/src/fsl_uart_driver.o
 .text.UART_DRV_CompleteReceiveData
                0x00000000       0x6c ./KSDK/platform/drivers/uart/src/fsl_uart_driver.o
 .text.UART_DRV_StartReceiveData
                0x00000000       0x7c ./KSDK/platform/drivers/uart/src/fsl_uart_driver.o
 .text.UART_DRV_SendDataBlocking
                0x00000000       0xc0 ./KSDK/platform/drivers/uart/src/fsl_uart_driver.o
 .text.UART_DRV_SendData
                0x00000000       0x78 ./KSDK/platform/drivers/uart/src/fsl_uart_driver.o
 .text.UART_DRV_GetTransmitStatus
                0x00000000       0x80 ./KSDK/platform/drivers/uart/src/fsl_uart_driver.o
 .text.UART_DRV_AbortSendingData
                0x00000000       0x5c ./KSDK/platform/drivers/uart/src/fsl_uart_driver.o
 .text.UART_DRV_ReceiveDataBlocking
                0x00000000       0xa4 ./KSDK/platform/drivers/uart/src/fsl_uart_driver.o
 .text.UART_DRV_ReceiveData
                0x00000000       0x78 ./KSDK/platform/drivers/uart/src/fsl_uart_driver.o
 .text.UART_DRV_GetReceiveStatus
                0x00000000       0x60 ./KSDK/platform/drivers/uart/src/fsl_uart_driver.o
 .text.UART_DRV_AbortReceivingData
                0x00000000       0x5c ./KSDK/platform/drivers/uart/src/fsl_uart_driver.o
 .text.UART_DRV_IRQHandler
                0x00000000      0x140 ./KSDK/platform/drivers/uart/src/fsl_uart_driver.o
 .rodata.__func__.18111
                0x00000000       0x10 ./KSDK/platform/drivers/uart/src/fsl_uart_driver.o
 .rodata.__func__.18097
                0x00000000       0x14 ./KSDK/platform/drivers/uart/src/fsl_uart_driver.o
 .rodata.__func__.18118
                0x00000000       0x10 ./KSDK/platform/drivers/uart/src/fsl_uart_driver.o
 .rodata.__func__.18101
                0x00000000       0x14 ./KSDK/platform/drivers/uart/src/fsl_uart_driver.o
 .rodata.__func__.18131
                0x00000000       0x1c ./KSDK/platform/drivers/uart/src/fsl_uart_driver.o
 .rodata.__func__.18137
                0x00000000       0x1c ./KSDK/platform/drivers/uart/src/fsl_uart_driver.o
 .rodata.__func__.18145
                0x00000000       0x18 ./KSDK/platform/drivers/uart/src/fsl_uart_driver.o
 .rodata.__func__.18155
                0x00000000       0x20 ./KSDK/platform/drivers/uart/src/fsl_uart_driver.o
 .rodata.__func__.18163
                0x00000000       0x1c ./KSDK/platform/drivers/uart/src/fsl_uart_driver.o
 .rodata.__func__.18172
                0x00000000       0x1c ./KSDK/platform/drivers/uart/src/fsl_uart_driver.o
 .rodata.__func__.18187
                0x00000000       0x14 ./KSDK/platform/drivers/uart/src/fsl_uart_driver.o
 .rodata.__func__.18193
                0x00000000       0x1c ./KSDK/platform/drivers/uart/src/fsl_uart_driver.o
 .rodata.__func__.18199
                0x00000000       0x1c ./KSDK/platform/drivers/uart/src/fsl_uart_driver.o
 .rodata.__func__.18207
                0x00000000       0x20 ./KSDK/platform/drivers/uart/src/fsl_uart_driver.o
 .rodata.__func__.18218
                0x00000000       0x18 ./KSDK/platform/drivers/uart/src/fsl_uart_driver.o
 .rodata.__func__.18224
                0x00000000       0x1c ./KSDK/platform/drivers/uart/src/fsl_uart_driver.o
 .rodata.__func__.18229
                0x00000000       0x1c ./KSDK/platform/drivers/uart/src/fsl_uart_driver.o
 .debug_info    0x00000000     0x1c08 ./KSDK/platform/drivers/uart/src/fsl_uart_driver.o
 .debug_abbrev  0x00000000      0x2cb ./KSDK/platform/drivers/uart/src/fsl_uart_driver.o
 .debug_aranges
                0x00000000      0x150 ./KSDK/platform/drivers/uart/src/fsl_uart_driver.o
 .debug_ranges  0x00000000      0x140 ./KSDK/platform/drivers/uart/src/fsl_uart_driver.o
 .debug_line    0x00000000      0xaa1 ./KSDK/platform/drivers/uart/src/fsl_uart_driver.o
 .debug_str     0x00000000     0x1624 ./KSDK/platform/drivers/uart/src/fsl_uart_driver.o
 .comment       0x00000000       0x71 ./KSDK/platform/drivers/uart/src/fsl_uart_driver.o
 .ARM.attributes
                0x00000000       0x39 ./KSDK/platform/drivers/uart/src/fsl_uart_driver.o
 .debug_frame   0x00000000      0x4a4 ./KSDK/platform/drivers/uart/src/fsl_uart_driver.o
 .text          0x00000000        0x0 ./KSDK/platform/drivers/uart/common/fsl_uart_common.o
 .data          0x00000000        0x0 ./KSDK/platform/drivers/uart/common/fsl_uart_common.o
 .bss           0x00000000        0x0 ./KSDK/platform/drivers/uart/common/fsl_uart_common.o
 .bss.g_uartStatePtr
                0x00000000       0x18 ./KSDK/platform/drivers/uart/common/fsl_uart_common.o
 .rodata.g_uartBaseAddr
                0x00000000       0x18 ./KSDK/platform/drivers/uart/common/fsl_uart_common.o
 .data.g_uartRxTxIrqId
                0x00000000        0x8 ./KSDK/platform/drivers/uart/common/fsl_uart_common.o
 .debug_info    0x00000000      0x37e ./KSDK/platform/drivers/uart/common/fsl_uart_common.o
 .debug_abbrev  0x00000000       0x9f ./KSDK/platform/drivers/uart/common/fsl_uart_common.o
 .debug_aranges
                0x00000000       0x18 ./KSDK/platform/drivers/uart/common/fsl_uart_common.o
 .debug_line    0x00000000      0x1bb ./KSDK/platform/drivers/uart/common/fsl_uart_common.o
 .debug_str     0x00000000      0x701 ./KSDK/platform/drivers/uart/common/fsl_uart_common.o
 .comment       0x00000000       0x71 ./KSDK/platform/drivers/uart/common/fsl_uart_common.o
 .ARM.attributes
                0x00000000       0x39 ./KSDK/platform/drivers/uart/common/fsl_uart_common.o
 .text          0x00000000        0x0 ./KSDK/platform/drivers/gpio/src/fsl_gpio_driver.o
 .data          0x00000000        0x0 ./KSDK/platform/drivers/gpio/src/fsl_gpio_driver.o
 .bss           0x00000000        0x0 ./KSDK/platform/drivers/gpio/src/fsl_gpio_driver.o
 .text.PORT_HAL_ClearPinIntFlag
                0x00000000       0x44 ./KSDK/platform/drivers/gpio/src/fsl_gpio_driver.o
 .text.GPIO_HAL_GetPinDir
                0x00000000       0x44 ./KSDK/platform/drivers/gpio/src/fsl_gpio_driver.o
 .text.GPIO_HAL_SetPinOutput
                0x00000000       0x3c ./KSDK/platform/drivers/gpio/src/fsl_gpio_driver.o
 .text.GPIO_HAL_ClearPinOutput
                0x00000000       0x3c ./KSDK/platform/drivers/gpio/src/fsl_gpio_driver.o
 .text.GPIO_HAL_ReadPinInput
                0x00000000       0x44 ./KSDK/platform/drivers/gpio/src/fsl_gpio_driver.o
 .text.GPIO_DRV_GetPinDir
                0x00000000       0x34 ./KSDK/platform/drivers/gpio/src/fsl_gpio_driver.o
 .text.GPIO_DRV_SetPinDir
                0x00000000       0x38 ./KSDK/platform/drivers/gpio/src/fsl_gpio_driver.o
 .text.GPIO_DRV_SetPinOutput
                0x00000000       0x30 ./KSDK/platform/drivers/gpio/src/fsl_gpio_driver.o
 .text.GPIO_DRV_ClearPinOutput
                0x00000000       0x30 ./KSDK/platform/drivers/gpio/src/fsl_gpio_driver.o
 .text.GPIO_DRV_ReadPinInput
                0x00000000       0x34 ./KSDK/platform/drivers/gpio/src/fsl_gpio_driver.o
 .text.GPIO_DRV_SetDigitalFilterCmd
                0x00000000       0x38 ./KSDK/platform/drivers/gpio/src/fsl_gpio_driver.o
 .text.GPIO_DRV_ClearPinIntFlag
                0x00000000       0x30 ./KSDK/platform/drivers/gpio/src/fsl_gpio_driver.o
 .rodata.__func__.14692
                0x00000000       0x14 ./KSDK/platform/drivers/gpio/src/fsl_gpio_driver.o
 .rodata.__func__.14709
                0x00000000       0x18 ./KSDK/platform/drivers/gpio/src/fsl_gpio_driver.o
 .rodata.__func__.14714
                0x00000000       0x18 ./KSDK/platform/drivers/gpio/src/fsl_gpio_driver.o
 .rodata.__func__.14731
                0x00000000       0x18 ./KSDK/platform/drivers/gpio/src/fsl_gpio_driver.o
 .rodata.__func__.14660
                0x00000000       0x1c ./KSDK/platform/drivers/gpio/src/fsl_gpio_driver.o
 .text          0x00000000        0x0 ./KSDK/platform/drivers/gpio/common/fsl_gpio_common.o
 .data          0x00000000        0x0 ./KSDK/platform/drivers/gpio/common/fsl_gpio_common.o
 .bss           0x00000000        0x0 ./KSDK/platform/drivers/gpio/common/fsl_gpio_common.o
 .text          0x00000000        0x0 ./KSDK/boards/frdmk64f120m/gpio_pins.o
 .data          0x00000000        0x0 ./KSDK/boards/frdmk64f120m/gpio_pins.o
 .bss           0x00000000        0x0 ./KSDK/boards/frdmk64f120m/gpio_pins.o
 .rodata.accelIntPins
                0x00000000       0x24 ./KSDK/boards/frdmk64f120m/gpio_pins.o
 .rodata.gpioUartDemoRxPin
                0x00000000       0x18 ./KSDK/boards/frdmk64f120m/gpio_pins.o
 .rodata.sdhcCdPin
                0x00000000       0x18 ./KSDK/boards/frdmk64f120m/gpio_pins.o
 .rodata.spiCsPin
                0x00000000       0x24 ./KSDK/boards/frdmk64f120m/gpio_pins.o
 .text          0x00000000        0x0 ./KSDK/boards/frdmk64f120m/hardware_init.o
 .data          0x00000000        0x0 ./KSDK/boards/frdmk64f120m/hardware_init.o
 .bss           0x00000000        0x0 ./KSDK/boards/frdmk64f120m/hardware_init.o
 .text.dbg_uart_init
                0x00000000       0x38 ./KSDK/boards/frdmk64f120m/hardware_init.o
 .text          0x00000000        0x0 ./KSDK/boards/frdmk64f120m/pin_mux.o
 .data          0x00000000        0x0 ./KSDK/boards/frdmk64f120m/pin_mux.o
 .bss           0x00000000        0x0 ./KSDK/boards/frdmk64f120m/pin_mux.o
 .text.configure_can_pins
                0x00000000       0x28 ./KSDK/boards/frdmk64f120m/pin_mux.o
 .text.configure_cmp_pins
                0x00000000       0x28 ./KSDK/boards/frdmk64f120m/pin_mux.o
 .text.configure_i2s_pins
                0x00000000       0x5c ./KSDK/boards/frdmk64f120m/pin_mux.o
 .text.configure_rtc_pins
                0x00000000       0x1c ./KSDK/boards/frdmk64f120m/pin_mux.o
 .text.configure_spi_cs0_pins
                0x00000000       0x1c ./KSDK/boards/frdmk64f120m/pin_mux.o
 .text.configure_spi_cs1_pins
                0x00000000       0x1c ./KSDK/boards/frdmk64f120m/pin_mux.o
 .text.configure_gpio_i2c_pins
                0x00000000       0x28 ./KSDK/boards/frdmk64f120m/pin_mux.o
 .data          0x00000000        0x0 ./BSP/KSDK/KDS/startup_MK64F12.o
 .bss           0x00000000        0x0 ./BSP/KSDK/KDS/startup_MK64F12.o
 .text          0x00000000        0x0 ./BSP/KSDK/startup.o
 .data          0x00000000        0x0 ./BSP/KSDK/startup.o
 .bss           0x00000000        0x0 ./BSP/KSDK/startup.o
 .text          0x00000000        0x0 ./BSP/bsp_ser.o
 .data          0x00000000        0x0 ./BSP/bsp_ser.o
 .bss           0x00000000        0x0 ./BSP/bsp_ser.o
 .bss.BSP_UartState
                0x00000000       0x70 ./BSP/bsp_ser.o
 .bss.BSP_SerLock
                0x00000000       0x28 ./BSP/bsp_ser.o
 .text.BSP_Ser_Init
                0x00000000       0x70 ./BSP/bsp_ser.o
 .text.BSP_Ser_Printf
                0x00000000       0x3c ./BSP/bsp_ser.o
 .text.BSP_Ser_RdByte
                0x00000000       0x44 ./BSP/bsp_ser.o
 .text.BSP_Ser_RdStr
                0x00000000       0xe0 ./BSP/bsp_ser.o
 .text.BSP_Ser_WrStr
                0x00000000       0x44 ./BSP/bsp_ser.o
 .text.BSP_Ser_WrByte
                0x00000000       0x38 ./BSP/bsp_ser.o
 .text.BSP_Ser_ISR_Handler
                0x00000000       0x1c ./BSP/bsp_ser.o
 .text.BSP_Ser_WrByteUnlocked
                0x00000000       0x20 ./BSP/bsp_ser.o
 .text.BSP_Ser_RdByteUnlocked
                0x00000000       0x20 ./BSP/bsp_ser.o
 .text.RxCallBackFnct
                0x00000000       0x18 ./BSP/bsp_ser.o
 .debug_info    0x00000000      0xfcd ./BSP/bsp_ser.o
 .debug_abbrev  0x00000000      0x24a ./BSP/bsp_ser.o
 .debug_aranges
                0x00000000       0x68 ./BSP/bsp_ser.o
 .debug_ranges  0x00000000       0x58 ./BSP/bsp_ser.o
 .debug_line    0x00000000      0x586 ./BSP/bsp_ser.o
 .debug_str     0x00000000     0x1140 ./BSP/bsp_ser.o
 .comment       0x00000000       0x71 ./BSP/bsp_ser.o
 .ARM.attributes
                0x00000000       0x39 ./BSP/bsp_ser.o
 .debug_frame   0x00000000      0x154 ./BSP/bsp_ser.o
 .text          0x00000000        0x0 ./BSP/cpu_bsp.o
 .data          0x00000000        0x0 ./BSP/cpu_bsp.o
 .bss           0x00000000        0x0 ./BSP/cpu_bsp.o
 .text.CPU_TS32_to_uSec
                0x00000000       0x5c ./BSP/cpu_bsp.o
 .text.CPU_TS64_to_uSec
                0x00000000       0x54 ./BSP/cpu_bsp.o
 .text          0x00000000        0x0 ./APP/app.o
 .data          0x00000000        0x0 ./APP/app.o
 .bss           0x00000000        0x0 ./APP/app.o
 .bss.led       0x00000000        0x4 ./APP/app.o
 .bss.freq      0x00000000        0x4 ./APP/app.o
 .bss.sem2      0x00000000       0x28 ./APP/app.o
 .text          0x00000000        0x0 ./APP/os_app_hooks.o
 .data          0x00000000        0x0 ./APP/os_app_hooks.o
 .bss           0x00000000        0x0 ./APP/os_app_hooks.o
 .text.App_OS_SetAllHooks
                0x00000000       0x70 ./APP/os_app_hooks.o
 .text.App_OS_ClrAllHooks
                0x00000000       0x54 ./APP/os_app_hooks.o
 .text.App_OS_TaskCreateHook
                0x00000000       0x14 ./APP/os_app_hooks.o
 .text.App_OS_TaskDelHook
                0x00000000       0x14 ./APP/os_app_hooks.o
 .text.App_OS_TaskReturnHook
                0x00000000       0x14 ./APP/os_app_hooks.o
 .text.App_OS_IdleTaskHook
                0x00000000        0xc ./APP/os_app_hooks.o
 .text.App_OS_InitHook
                0x00000000        0xc ./APP/os_app_hooks.o
 .text.App_OS_StatTaskHook
                0x00000000        0xc ./APP/os_app_hooks.o
 .text.App_OS_TaskSwHook
                0x00000000        0xc ./APP/os_app_hooks.o
 .text.App_OS_TimeTickHook
                0x00000000        0xc ./APP/os_app_hooks.o
 .debug_info    0x00000000      0x8bc ./APP/os_app_hooks.o
 .debug_abbrev  0x00000000      0x112 ./APP/os_app_hooks.o
 .debug_aranges
                0x00000000       0x68 ./APP/os_app_hooks.o
 .debug_ranges  0x00000000       0x58 ./APP/os_app_hooks.o
 .debug_line    0x00000000      0x237 ./APP/os_app_hooks.o
 .debug_str     0x00000000      0x7bf ./APP/os_app_hooks.o
 .comment       0x00000000       0x71 ./APP/os_app_hooks.o
 .ARM.attributes
                0x00000000       0x39 ./APP/os_app_hooks.o
 .debug_frame   0x00000000      0x114 ./APP/os_app_hooks.o
 .text          0x00000000       0x2c c:/freescale/kds_v3/toolchain/bin/../lib/gcc/arm-none-eabi/4.8.4/armv7e-m/fpu\libgcc.a(_aeabi_uldivmod.o)
 .data          0x00000000        0x0 c:/freescale/kds_v3/toolchain/bin/../lib/gcc/arm-none-eabi/4.8.4/armv7e-m/fpu\libgcc.a(_aeabi_uldivmod.o)
 .bss           0x00000000        0x0 c:/freescale/kds_v3/toolchain/bin/../lib/gcc/arm-none-eabi/4.8.4/armv7e-m/fpu\libgcc.a(_aeabi_uldivmod.o)
 .ARM.attributes
                0x00000000       0x22 c:/freescale/kds_v3/toolchain/bin/../lib/gcc/arm-none-eabi/4.8.4/armv7e-m/fpu\libgcc.a(_aeabi_uldivmod.o)
 .text          0x00000000       0x60 c:/freescale/kds_v3/toolchain/bin/../lib/gcc/arm-none-eabi/4.8.4/armv7e-m/fpu\libgcc.a(bpabi.o)
 .data          0x00000000        0x0 c:/freescale/kds_v3/toolchain/bin/../lib/gcc/arm-none-eabi/4.8.4/armv7e-m/fpu\libgcc.a(bpabi.o)
 .bss           0x00000000        0x0 c:/freescale/kds_v3/toolchain/bin/../lib/gcc/arm-none-eabi/4.8.4/armv7e-m/fpu\libgcc.a(bpabi.o)
 .ARM.attributes
                0x00000000       0x34 c:/freescale/kds_v3/toolchain/bin/../lib/gcc/arm-none-eabi/4.8.4/armv7e-m/fpu\libgcc.a(bpabi.o)
 .debug_frame   0x00000000       0x50 c:/freescale/kds_v3/toolchain/bin/../lib/gcc/arm-none-eabi/4.8.4/armv7e-m/fpu\libgcc.a(bpabi.o)
 .text          0x00000000        0x4 c:/freescale/kds_v3/toolchain/bin/../lib/gcc/arm-none-eabi/4.8.4/armv7e-m/fpu\libgcc.a(_dvmd_tls.o)
 .data          0x00000000        0x0 c:/freescale/kds_v3/toolchain/bin/../lib/gcc/arm-none-eabi/4.8.4/armv7e-m/fpu\libgcc.a(_dvmd_tls.o)
 .bss           0x00000000        0x0 c:/freescale/kds_v3/toolchain/bin/../lib/gcc/arm-none-eabi/4.8.4/armv7e-m/fpu\libgcc.a(_dvmd_tls.o)
 .ARM.attributes
                0x00000000       0x22 c:/freescale/kds_v3/toolchain/bin/../lib/gcc/arm-none-eabi/4.8.4/armv7e-m/fpu\libgcc.a(_dvmd_tls.o)
 .text          0x00000000      0x298 c:/freescale/kds_v3/toolchain/bin/../lib/gcc/arm-none-eabi/4.8.4/armv7e-m/fpu\libgcc.a(_divdi3.o)
 .data          0x00000000        0x0 c:/freescale/kds_v3/toolchain/bin/../lib/gcc/arm-none-eabi/4.8.4/armv7e-m/fpu\libgcc.a(_divdi3.o)
 .bss           0x00000000        0x0 c:/freescale/kds_v3/toolchain/bin/../lib/gcc/arm-none-eabi/4.8.4/armv7e-m/fpu\libgcc.a(_divdi3.o)
 .ARM.extab     0x00000000        0x0 c:/freescale/kds_v3/toolchain/bin/../lib/gcc/arm-none-eabi/4.8.4/armv7e-m/fpu\libgcc.a(_divdi3.o)
 .ARM.exidx     0x00000000        0x8 c:/freescale/kds_v3/toolchain/bin/../lib/gcc/arm-none-eabi/4.8.4/armv7e-m/fpu\libgcc.a(_divdi3.o)
 .ARM.attributes
                0x00000000       0x34 c:/freescale/kds_v3/toolchain/bin/../lib/gcc/arm-none-eabi/4.8.4/armv7e-m/fpu\libgcc.a(_divdi3.o)
 .debug_frame   0x00000000       0x34 c:/freescale/kds_v3/toolchain/bin/../lib/gcc/arm-none-eabi/4.8.4/armv7e-m/fpu\libgcc.a(_divdi3.o)
 .text          0x00000000      0x284 c:/freescale/kds_v3/toolchain/bin/../lib/gcc/arm-none-eabi/4.8.4/armv7e-m/fpu\libgcc.a(_udivdi3.o)
 .data          0x00000000        0x0 c:/freescale/kds_v3/toolchain/bin/../lib/gcc/arm-none-eabi/4.8.4/armv7e-m/fpu\libgcc.a(_udivdi3.o)
 .bss           0x00000000        0x0 c:/freescale/kds_v3/toolchain/bin/../lib/gcc/arm-none-eabi/4.8.4/armv7e-m/fpu\libgcc.a(_udivdi3.o)
 .ARM.extab     0x00000000        0x0 c:/freescale/kds_v3/toolchain/bin/../lib/gcc/arm-none-eabi/4.8.4/armv7e-m/fpu\libgcc.a(_udivdi3.o)
 .ARM.exidx     0x00000000        0x8 c:/freescale/kds_v3/toolchain/bin/../lib/gcc/arm-none-eabi/4.8.4/armv7e-m/fpu\libgcc.a(_udivdi3.o)
 .ARM.attributes
                0x00000000       0x34 c:/freescale/kds_v3/toolchain/bin/../lib/gcc/arm-none-eabi/4.8.4/armv7e-m/fpu\libgcc.a(_udivdi3.o)
 .debug_frame   0x00000000       0x34 c:/freescale/kds_v3/toolchain/bin/../lib/gcc/arm-none-eabi/4.8.4/armv7e-m/fpu\libgcc.a(_udivdi3.o)
 .text          0x00000000        0x0 c:/freescale/kds_v3/toolchain/bin/../lib/gcc/arm-none-eabi/4.8.4/../../../../arm-none-eabi/lib/armv7e-m/fpu\libg_s.a(lib_a-assert.o)
 .data          0x00000000        0x0 c:/freescale/kds_v3/toolchain/bin/../lib/gcc/arm-none-eabi/4.8.4/../../../../arm-none-eabi/lib/armv7e-m/fpu\libg_s.a(lib_a-assert.o)
 .bss           0x00000000        0x0 c:/freescale/kds_v3/toolchain/bin/../lib/gcc/arm-none-eabi/4.8.4/../../../../arm-none-eabi/lib/armv7e-m/fpu\libg_s.a(lib_a-assert.o)
 .text.__assert
                0x00000000        0xa c:/freescale/kds_v3/toolchain/bin/../lib/gcc/arm-none-eabi/4.8.4/../../../../arm-none-eabi/lib/armv7e-m/fpu\libg_s.a(lib_a-assert.o)
 .text          0x00000000        0x0 c:/freescale/kds_v3/toolchain/bin/../lib/gcc/arm-none-eabi/4.8.4/../../../../arm-none-eabi/lib/armv7e-m/fpu\libg_s.a(lib_a-calloc.o)
 .data          0x00000000        0x0 c:/freescale/kds_v3/toolchain/bin/../lib/gcc/arm-none-eabi/4.8.4/../../../../arm-none-eabi/lib/armv7e-m/fpu\libg_s.a(lib_a-calloc.o)
 .bss           0x00000000        0x0 c:/freescale/kds_v3/toolchain/bin/../lib/gcc/arm-none-eabi/4.8.4/../../../../arm-none-eabi/lib/armv7e-m/fpu\libg_s.a(lib_a-calloc.o)
 .text.calloc   0x00000000       0x14 c:/freescale/kds_v3/toolchain/bin/../lib/gcc/arm-none-eabi/4.8.4/../../../../arm-none-eabi/lib/armv7e-m/fpu\libg_s.a(lib_a-calloc.o)
 .ARM.attributes
                0x00000000       0x34 c:/freescale/kds_v3/toolchain/bin/../lib/gcc/arm-none-eabi/4.8.4/../../../../arm-none-eabi/lib/armv7e-m/fpu\libg_s.a(lib_a-calloc.o)
 .debug_frame   0x00000000       0x20 c:/freescale/kds_v3/toolchain/bin/../lib/gcc/arm-none-eabi/4.8.4/../../../../arm-none-eabi/lib/armv7e-m/fpu\libg_s.a(lib_a-calloc.o)
 .text          0x00000000        0x0 c:/freescale/kds_v3/toolchain/bin/../lib/gcc/arm-none-eabi/4.8.4/../../../../arm-none-eabi/lib/armv7e-m/fpu\libg_s.a(lib_a-exit.o)
 .data          0x00000000        0x0 c:/freescale/kds_v3/toolchain/bin/../lib/gcc/arm-none-eabi/4.8.4/../../../../arm-none-eabi/lib/armv7e-m/fpu\libg_s.a(lib_a-exit.o)
 .bss           0x00000000        0x0 c:/freescale/kds_v3/toolchain/bin/../lib/gcc/arm-none-eabi/4.8.4/../../../../arm-none-eabi/lib/armv7e-m/fpu\libg_s.a(lib_a-exit.o)
 .text          0x00000000        0x0 c:/freescale/kds_v3/toolchain/bin/../lib/gcc/arm-none-eabi/4.8.4/../../../../arm-none-eabi/lib/armv7e-m/fpu\libg_s.a(lib_a-fprintf.o)
 .data          0x00000000        0x0 c:/freescale/kds_v3/toolchain/bin/../lib/gcc/arm-none-eabi/4.8.4/../../../../arm-none-eabi/lib/armv7e-m/fpu\libg_s.a(lib_a-fprintf.o)
 .bss           0x00000000        0x0 c:/freescale/kds_v3/toolchain/bin/../lib/gcc/arm-none-eabi/4.8.4/../../../../arm-none-eabi/lib/armv7e-m/fpu\libg_s.a(lib_a-fprintf.o)
 .text._fprintf_r
                0x00000000       0x1a c:/freescale/kds_v3/toolchain/bin/../lib/gcc/arm-none-eabi/4.8.4/../../../../arm-none-eabi/lib/armv7e-m/fpu\libg_s.a(lib_a-fprintf.o)
 .text          0x00000000        0x0 c:/freescale/kds_v3/toolchain/bin/../lib/gcc/arm-none-eabi/4.8.4/../../../../arm-none-eabi/lib/armv7e-m/fpu\libg_s.a(lib_a-impure.o)
 .data          0x00000000        0x0 c:/freescale/kds_v3/toolchain/bin/../lib/gcc/arm-none-eabi/4.8.4/../../../../arm-none-eabi/lib/armv7e-m/fpu\libg_s.a(lib_a-impure.o)
 .bss           0x00000000        0x0 c:/freescale/kds_v3/toolchain/bin/../lib/gcc/arm-none-eabi/4.8.4/../../../../arm-none-eabi/lib/armv7e-m/fpu\libg_s.a(lib_a-impure.o)
 .text          0x00000000        0x0 c:/freescale/kds_v3/toolchain/bin/../lib/gcc/arm-none-eabi/4.8.4/../../../../arm-none-eabi/lib/armv7e-m/fpu\libg_s.a(lib_a-init.o)
 .data          0x00000000        0x0 c:/freescale/kds_v3/toolchain/bin/../lib/gcc/arm-none-eabi/4.8.4/../../../../arm-none-eabi/lib/armv7e-m/fpu\libg_s.a(lib_a-init.o)
 .bss           0x00000000        0x0 c:/freescale/kds_v3/toolchain/bin/../lib/gcc/arm-none-eabi/4.8.4/../../../../arm-none-eabi/lib/armv7e-m/fpu\libg_s.a(lib_a-init.o)
 .text          0x00000000        0x0 c:/freescale/kds_v3/toolchain/bin/../lib/gcc/arm-none-eabi/4.8.4/../../../../arm-none-eabi/lib/armv7e-m/fpu\libg_s.a(lib_a-malloc.o)
 .data          0x00000000        0x0 c:/freescale/kds_v3/toolchain/bin/../lib/gcc/arm-none-eabi/4.8.4/../../../../arm-none-eabi/lib/armv7e-m/fpu\libg_s.a(lib_a-malloc.o)
 .bss           0x00000000        0x0 c:/freescale/kds_v3/toolchain/bin/../lib/gcc/arm-none-eabi/4.8.4/../../../../arm-none-eabi/lib/armv7e-m/fpu\libg_s.a(lib_a-malloc.o)
 .text.malloc   0x00000000       0x10 c:/freescale/kds_v3/toolchain/bin/../lib/gcc/arm-none-eabi/4.8.4/../../../../arm-none-eabi/lib/armv7e-m/fpu\libg_s.a(lib_a-malloc.o)
 .text.free     0x00000000       0x10 c:/freescale/kds_v3/toolchain/bin/../lib/gcc/arm-none-eabi/4.8.4/../../../../arm-none-eabi/lib/armv7e-m/fpu\libg_s.a(lib_a-malloc.o)
 .ARM.attributes
                0x00000000       0x34 c:/freescale/kds_v3/toolchain/bin/../lib/gcc/arm-none-eabi/4.8.4/../../../../arm-none-eabi/lib/armv7e-m/fpu\libg_s.a(lib_a-malloc.o)
 .debug_frame   0x00000000       0x30 c:/freescale/kds_v3/toolchain/bin/../lib/gcc/arm-none-eabi/4.8.4/../../../../arm-none-eabi/lib/armv7e-m/fpu\libg_s.a(lib_a-malloc.o)
 .text          0x00000000        0x0 c:/freescale/kds_v3/toolchain/bin/../lib/gcc/arm-none-eabi/4.8.4/../../../../arm-none-eabi/lib/armv7e-m/fpu\libg_s.a(lib_a-memset.o)
 .data          0x00000000        0x0 c:/freescale/kds_v3/toolchain/bin/../lib/gcc/arm-none-eabi/4.8.4/../../../../arm-none-eabi/lib/armv7e-m/fpu\libg_s.a(lib_a-memset.o)
 .bss           0x00000000        0x0 c:/freescale/kds_v3/toolchain/bin/../lib/gcc/arm-none-eabi/4.8.4/../../../../arm-none-eabi/lib/armv7e-m/fpu\libg_s.a(lib_a-memset.o)
 .text          0x00000000        0x0 c:/freescale/kds_v3/toolchain/bin/../lib/gcc/arm-none-eabi/4.8.4/../../../../arm-none-eabi/lib/armv7e-m/fpu\libg_s.a(lib_a-nano-callocr.o)
 .data          0x00000000        0x0 c:/freescale/kds_v3/toolchain/bin/../lib/gcc/arm-none-eabi/4.8.4/../../../../arm-none-eabi/lib/armv7e-m/fpu\libg_s.a(lib_a-nano-callocr.o)
 .bss           0x00000000        0x0 c:/freescale/kds_v3/toolchain/bin/../lib/gcc/arm-none-eabi/4.8.4/../../../../arm-none-eabi/lib/armv7e-m/fpu\libg_s.a(lib_a-nano-callocr.o)
 .text._calloc_r
                0x00000000       0x1c c:/freescale/kds_v3/toolchain/bin/../lib/gcc/arm-none-eabi/4.8.4/../../../../arm-none-eabi/lib/armv7e-m/fpu\libg_s.a(lib_a-nano-callocr.o)
 .ARM.attributes
                0x00000000       0x34 c:/freescale/kds_v3/toolchain/bin/../lib/gcc/arm-none-eabi/4.8.4/../../../../arm-none-eabi/lib/armv7e-m/fpu\libg_s.a(lib_a-nano-callocr.o)
 .debug_frame   0x00000000       0x2c c:/freescale/kds_v3/toolchain/bin/../lib/gcc/arm-none-eabi/4.8.4/../../../../arm-none-eabi/lib/armv7e-m/fpu\libg_s.a(lib_a-nano-callocr.o)
 .text          0x00000000        0x0 c:/freescale/kds_v3/toolchain/bin/../lib/gcc/arm-none-eabi/4.8.4/../../../../arm-none-eabi/lib/armv7e-m/fpu\libg_s.a(lib_a-nano-freer.o)
 .data          0x00000000        0x0 c:/freescale/kds_v3/toolchain/bin/../lib/gcc/arm-none-eabi/4.8.4/../../../../arm-none-eabi/lib/armv7e-m/fpu\libg_s.a(lib_a-nano-freer.o)
 .bss           0x00000000        0x0 c:/freescale/kds_v3/toolchain/bin/../lib/gcc/arm-none-eabi/4.8.4/../../../../arm-none-eabi/lib/armv7e-m/fpu\libg_s.a(lib_a-nano-freer.o)
 .text          0x00000000        0x0 c:/freescale/kds_v3/toolchain/bin/../lib/gcc/arm-none-eabi/4.8.4/../../../../arm-none-eabi/lib/armv7e-m/fpu\libg_s.a(lib_a-nano-mallocr.o)
 .data          0x00000000        0x0 c:/freescale/kds_v3/toolchain/bin/../lib/gcc/arm-none-eabi/4.8.4/../../../../arm-none-eabi/lib/armv7e-m/fpu\libg_s.a(lib_a-nano-mallocr.o)
 .bss           0x00000000        0x0 c:/freescale/kds_v3/toolchain/bin/../lib/gcc/arm-none-eabi/4.8.4/../../../../arm-none-eabi/lib/armv7e-m/fpu\libg_s.a(lib_a-nano-mallocr.o)
 .text          0x00000000        0x0 c:/freescale/kds_v3/toolchain/bin/../lib/gcc/arm-none-eabi/4.8.4/../../../../arm-none-eabi/lib/armv7e-m/fpu\libg_s.a(lib_a-sbrkr.o)
 .data          0x00000000        0x0 c:/freescale/kds_v3/toolchain/bin/../lib/gcc/arm-none-eabi/4.8.4/../../../../arm-none-eabi/lib/armv7e-m/fpu\libg_s.a(lib_a-sbrkr.o)
 .bss           0x00000000        0x0 c:/freescale/kds_v3/toolchain/bin/../lib/gcc/arm-none-eabi/4.8.4/../../../../arm-none-eabi/lib/armv7e-m/fpu\libg_s.a(lib_a-sbrkr.o)
 .text          0x00000000        0x0 c:/freescale/kds_v3/toolchain/bin/../lib/gcc/arm-none-eabi/4.8.4/../../../../arm-none-eabi/lib/armv7e-m/fpu\libg_s.a(lib_a-vfprintf.o)
 .data          0x00000000        0x0 c:/freescale/kds_v3/toolchain/bin/../lib/gcc/arm-none-eabi/4.8.4/../../../../arm-none-eabi/lib/armv7e-m/fpu\libg_s.a(lib_a-vfprintf.o)
 .bss           0x00000000        0x0 c:/freescale/kds_v3/toolchain/bin/../lib/gcc/arm-none-eabi/4.8.4/../../../../arm-none-eabi/lib/armv7e-m/fpu\libg_s.a(lib_a-vfprintf.o)
 .text.__sprint_r
                0x00000000       0x1a c:/freescale/kds_v3/toolchain/bin/../lib/gcc/arm-none-eabi/4.8.4/../../../../arm-none-eabi/lib/armv7e-m/fpu\libg_s.a(lib_a-vfprintf.o)
 .text.vfprintf
                0x00000000       0x1c c:/freescale/kds_v3/toolchain/bin/../lib/gcc/arm-none-eabi/4.8.4/../../../../arm-none-eabi/lib/armv7e-m/fpu\libg_s.a(lib_a-vfprintf.o)
 .text          0x00000000        0x0 c:/freescale/kds_v3/toolchain/bin/../lib/gcc/arm-none-eabi/4.8.4/../../../../arm-none-eabi/lib/armv7e-m/fpu\libg_s.a(lib_a-vfprintf_i.o)
 .data          0x00000000        0x0 c:/freescale/kds_v3/toolchain/bin/../lib/gcc/arm-none-eabi/4.8.4/../../../../arm-none-eabi/lib/armv7e-m/fpu\libg_s.a(lib_a-vfprintf_i.o)
 .bss           0x00000000        0x0 c:/freescale/kds_v3/toolchain/bin/../lib/gcc/arm-none-eabi/4.8.4/../../../../arm-none-eabi/lib/armv7e-m/fpu\libg_s.a(lib_a-vfprintf_i.o)
 .text          0x00000000        0x0 c:/freescale/kds_v3/toolchain/bin/../lib/gcc/arm-none-eabi/4.8.4/../../../../arm-none-eabi/lib/armv7e-m/fpu\libg_s.a(lib_a-vsprintf.o)
 .data          0x00000000        0x0 c:/freescale/kds_v3/toolchain/bin/../lib/gcc/arm-none-eabi/4.8.4/../../../../arm-none-eabi/lib/armv7e-m/fpu\libg_s.a(lib_a-vsprintf.o)
 .bss           0x00000000        0x0 c:/freescale/kds_v3/toolchain/bin/../lib/gcc/arm-none-eabi/4.8.4/../../../../arm-none-eabi/lib/armv7e-m/fpu\libg_s.a(lib_a-vsprintf.o)
 .text._vsprintf_r
                0x00000000       0x30 c:/freescale/kds_v3/toolchain/bin/../lib/gcc/arm-none-eabi/4.8.4/../../../../arm-none-eabi/lib/armv7e-m/fpu\libg_s.a(lib_a-vsprintf.o)
 .text.vsprintf
                0x00000000       0x1c c:/freescale/kds_v3/toolchain/bin/../lib/gcc/arm-none-eabi/4.8.4/../../../../arm-none-eabi/lib/armv7e-m/fpu\libg_s.a(lib_a-vsprintf.o)
 .ARM.attributes
                0x00000000       0x34 c:/freescale/kds_v3/toolchain/bin/../lib/gcc/arm-none-eabi/4.8.4/../../../../arm-none-eabi/lib/armv7e-m/fpu\libg_s.a(lib_a-vsprintf.o)
 .debug_frame   0x00000000       0x48 c:/freescale/kds_v3/toolchain/bin/../lib/gcc/arm-none-eabi/4.8.4/../../../../arm-none-eabi/lib/armv7e-m/fpu\libg_s.a(lib_a-vsprintf.o)
 .text          0x00000000        0x0 c:/freescale/kds_v3/toolchain/bin/../lib/gcc/arm-none-eabi/4.8.4/../../../../arm-none-eabi/lib/armv7e-m/fpu\libg_s.a(lib_a-wbuf.o)
 .data          0x00000000        0x0 c:/freescale/kds_v3/toolchain/bin/../lib/gcc/arm-none-eabi/4.8.4/../../../../arm-none-eabi/lib/armv7e-m/fpu\libg_s.a(lib_a-wbuf.o)
 .bss           0x00000000        0x0 c:/freescale/kds_v3/toolchain/bin/../lib/gcc/arm-none-eabi/4.8.4/../../../../arm-none-eabi/lib/armv7e-m/fpu\libg_s.a(lib_a-wbuf.o)
 .text.__swbuf  0x00000000       0x14 c:/freescale/kds_v3/toolchain/bin/../lib/gcc/arm-none-eabi/4.8.4/../../../../arm-none-eabi/lib/armv7e-m/fpu\libg_s.a(lib_a-wbuf.o)
 .text          0x00000000        0x0 c:/freescale/kds_v3/toolchain/bin/../lib/gcc/arm-none-eabi/4.8.4/../../../../arm-none-eabi/lib/armv7e-m/fpu\libg_s.a(lib_a-wsetup.o)
 .data          0x00000000        0x0 c:/freescale/kds_v3/toolchain/bin/../lib/gcc/arm-none-eabi/4.8.4/../../../../arm-none-eabi/lib/armv7e-m/fpu\libg_s.a(lib_a-wsetup.o)
 .bss           0x00000000        0x0 c:/freescale/kds_v3/toolchain/bin/../lib/gcc/arm-none-eabi/4.8.4/../../../../arm-none-eabi/lib/armv7e-m/fpu\libg_s.a(lib_a-wsetup.o)
 .text          0x00000000        0x0 c:/freescale/kds_v3/toolchain/bin/../lib/gcc/arm-none-eabi/4.8.4/../../../../arm-none-eabi/lib/armv7e-m/fpu\libg_s.a(lib_a-abort.o)
 .data          0x00000000        0x0 c:/freescale/kds_v3/toolchain/bin/../lib/gcc/arm-none-eabi/4.8.4/../../../../arm-none-eabi/lib/armv7e-m/fpu\libg_s.a(lib_a-abort.o)
 .bss           0x00000000        0x0 c:/freescale/kds_v3/toolchain/bin/../lib/gcc/arm-none-eabi/4.8.4/../../../../arm-none-eabi/lib/armv7e-m/fpu\libg_s.a(lib_a-abort.o)
 .text          0x00000000        0x0 c:/freescale/kds_v3/toolchain/bin/../lib/gcc/arm-none-eabi/4.8.4/../../../../arm-none-eabi/lib/armv7e-m/fpu\libg_s.a(lib_a-fflush.o)
 .data          0x00000000        0x0 c:/freescale/kds_v3/toolchain/bin/../lib/gcc/arm-none-eabi/4.8.4/../../../../arm-none-eabi/lib/armv7e-m/fpu\libg_s.a(lib_a-fflush.o)
 .bss           0x00000000        0x0 c:/freescale/kds_v3/toolchain/bin/../lib/gcc/arm-none-eabi/4.8.4/../../../../arm-none-eabi/lib/armv7e-m/fpu\libg_s.a(lib_a-fflush.o)
 .text.fflush   0x00000000       0x24 c:/freescale/kds_v3/toolchain/bin/../lib/gcc/arm-none-eabi/4.8.4/../../../../arm-none-eabi/lib/armv7e-m/fpu\libg_s.a(lib_a-fflush.o)
 .text          0x00000000        0x0 c:/freescale/kds_v3/toolchain/bin/../lib/gcc/arm-none-eabi/4.8.4/../../../../arm-none-eabi/lib/armv7e-m/fpu\libg_s.a(lib_a-findfp.o)
 .data          0x00000000        0x0 c:/freescale/kds_v3/toolchain/bin/../lib/gcc/arm-none-eabi/4.8.4/../../../../arm-none-eabi/lib/armv7e-m/fpu\libg_s.a(lib_a-findfp.o)
 .bss           0x00000000        0x0 c:/freescale/kds_v3/toolchain/bin/../lib/gcc/arm-none-eabi/4.8.4/../../../../arm-none-eabi/lib/armv7e-m/fpu\libg_s.a(lib_a-findfp.o)
 .text.__fp_lock
                0x00000000        0x4 c:/freescale/kds_v3/toolchain/bin/../lib/gcc/arm-none-eabi/4.8.4/../../../../arm-none-eabi/lib/armv7e-m/fpu\libg_s.a(lib_a-findfp.o)
 .text.__fp_unlock
                0x00000000        0x4 c:/freescale/kds_v3/toolchain/bin/../lib/gcc/arm-none-eabi/4.8.4/../../../../arm-none-eabi/lib/armv7e-m/fpu\libg_s.a(lib_a-findfp.o)
 .text._cleanup
                0x00000000        0xc c:/freescale/kds_v3/toolchain/bin/../lib/gcc/arm-none-eabi/4.8.4/../../../../arm-none-eabi/lib/armv7e-m/fpu\libg_s.a(lib_a-findfp.o)
 .text.__sfp_lock_acquire
                0x00000000        0x2 c:/freescale/kds_v3/toolchain/bin/../lib/gcc/arm-none-eabi/4.8.4/../../../../arm-none-eabi/lib/armv7e-m/fpu\libg_s.a(lib_a-findfp.o)
 .text.__sfp_lock_release
                0x00000000        0x2 c:/freescale/kds_v3/toolchain/bin/../lib/gcc/arm-none-eabi/4.8.4/../../../../arm-none-eabi/lib/armv7e-m/fpu\libg_s.a(lib_a-findfp.o)
 .text.__sinit_lock_acquire
                0x00000000        0x2 c:/freescale/kds_v3/toolchain/bin/../lib/gcc/arm-none-eabi/4.8.4/../../../../arm-none-eabi/lib/armv7e-m/fpu\libg_s.a(lib_a-findfp.o)
 .text.__sinit_lock_release
                0x00000000        0x2 c:/freescale/kds_v3/toolchain/bin/../lib/gcc/arm-none-eabi/4.8.4/../../../../arm-none-eabi/lib/armv7e-m/fpu\libg_s.a(lib_a-findfp.o)
 .text.__fp_lock_all
                0x00000000       0x14 c:/freescale/kds_v3/toolchain/bin/../lib/gcc/arm-none-eabi/4.8.4/../../../../arm-none-eabi/lib/armv7e-m/fpu\libg_s.a(lib_a-findfp.o)
 .text.__fp_unlock_all
                0x00000000       0x14 c:/freescale/kds_v3/toolchain/bin/../lib/gcc/arm-none-eabi/4.8.4/../../../../arm-none-eabi/lib/armv7e-m/fpu\libg_s.a(lib_a-findfp.o)
 .text          0x00000000        0x0 c:/freescale/kds_v3/toolchain/bin/../lib/gcc/arm-none-eabi/4.8.4/../../../../arm-none-eabi/lib/armv7e-m/fpu\libg_s.a(lib_a-fvwrite.o)
 .data          0x00000000        0x0 c:/freescale/kds_v3/toolchain/bin/../lib/gcc/arm-none-eabi/4.8.4/../../../../arm-none-eabi/lib/armv7e-m/fpu\libg_s.a(lib_a-fvwrite.o)
 .bss           0x00000000        0x0 c:/freescale/kds_v3/toolchain/bin/../lib/gcc/arm-none-eabi/4.8.4/../../../../arm-none-eabi/lib/armv7e-m/fpu\libg_s.a(lib_a-fvwrite.o)
 .text.__sfvwrite_r
                0x00000000      0x298 c:/freescale/kds_v3/toolchain/bin/../lib/gcc/arm-none-eabi/4.8.4/../../../../arm-none-eabi/lib/armv7e-m/fpu\libg_s.a(lib_a-fvwrite.o)
 .ARM.attributes
                0x00000000       0x34 c:/freescale/kds_v3/toolchain/bin/../lib/gcc/arm-none-eabi/4.8.4/../../../../arm-none-eabi/lib/armv7e-m/fpu\libg_s.a(lib_a-fvwrite.o)
 .debug_frame   0x00000000       0x3c c:/freescale/kds_v3/toolchain/bin/../lib/gcc/arm-none-eabi/4.8.4/../../../../arm-none-eabi/lib/armv7e-m/fpu\libg_s.a(lib_a-fvwrite.o)
 .text          0x00000000        0x0 c:/freescale/kds_v3/toolchain/bin/../lib/gcc/arm-none-eabi/4.8.4/../../../../arm-none-eabi/lib/armv7e-m/fpu\libg_s.a(lib_a-fwalk.o)
 .data          0x00000000        0x0 c:/freescale/kds_v3/toolchain/bin/../lib/gcc/arm-none-eabi/4.8.4/../../../../arm-none-eabi/lib/armv7e-m/fpu\libg_s.a(lib_a-fwalk.o)
 .bss           0x00000000        0x0 c:/freescale/kds_v3/toolchain/bin/../lib/gcc/arm-none-eabi/4.8.4/../../../../arm-none-eabi/lib/armv7e-m/fpu\libg_s.a(lib_a-fwalk.o)
 .text._fwalk   0x00000000       0x38 c:/freescale/kds_v3/toolchain/bin/../lib/gcc/arm-none-eabi/4.8.4/../../../../arm-none-eabi/lib/armv7e-m/fpu\libg_s.a(lib_a-fwalk.o)
 .text._fwalk_reent
                0x00000000       0x3c c:/freescale/kds_v3/toolchain/bin/../lib/gcc/arm-none-eabi/4.8.4/../../../../arm-none-eabi/lib/armv7e-m/fpu\libg_s.a(lib_a-fwalk.o)
 .ARM.attributes
                0x00000000       0x34 c:/freescale/kds_v3/toolchain/bin/../lib/gcc/arm-none-eabi/4.8.4/../../../../arm-none-eabi/lib/armv7e-m/fpu\libg_s.a(lib_a-fwalk.o)
 .debug_frame   0x00000000       0x54 c:/freescale/kds_v3/toolchain/bin/../lib/gcc/arm-none-eabi/4.8.4/../../../../arm-none-eabi/lib/armv7e-m/fpu\libg_s.a(lib_a-fwalk.o)
 .text          0x00000000        0x0 c:/freescale/kds_v3/toolchain/bin/../lib/gcc/arm-none-eabi/4.8.4/../../../../arm-none-eabi/lib/armv7e-m/fpu\libg_s.a(lib_a-makebuf.o)
 .data          0x00000000        0x0 c:/freescale/kds_v3/toolchain/bin/../lib/gcc/arm-none-eabi/4.8.4/../../../../arm-none-eabi/lib/armv7e-m/fpu\libg_s.a(lib_a-makebuf.o)
 .bss           0x00000000        0x0 c:/freescale/kds_v3/toolchain/bin/../lib/gcc/arm-none-eabi/4.8.4/../../../../arm-none-eabi/lib/armv7e-m/fpu\libg_s.a(lib_a-makebuf.o)
 .text          0x00000000        0x0 c:/freescale/kds_v3/toolchain/bin/../lib/gcc/arm-none-eabi/4.8.4/../../../../arm-none-eabi/lib/armv7e-m/fpu\libg_s.a(lib_a-memchr-stub.o)
 .data          0x00000000        0x0 c:/freescale/kds_v3/toolchain/bin/../lib/gcc/arm-none-eabi/4.8.4/../../../../arm-none-eabi/lib/armv7e-m/fpu\libg_s.a(lib_a-memchr-stub.o)
 .bss           0x00000000        0x0 c:/freescale/kds_v3/toolchain/bin/../lib/gcc/arm-none-eabi/4.8.4/../../../../arm-none-eabi/lib/armv7e-m/fpu\libg_s.a(lib_a-memchr-stub.o)
 .text          0x00000000        0x0 c:/freescale/kds_v3/toolchain/bin/../lib/gcc/arm-none-eabi/4.8.4/../../../../arm-none-eabi/lib/armv7e-m/fpu\libg_s.a(lib_a-memcpy-stub.o)
 .data          0x00000000        0x0 c:/freescale/kds_v3/toolchain/bin/../lib/gcc/arm-none-eabi/4.8.4/../../../../arm-none-eabi/lib/armv7e-m/fpu\libg_s.a(lib_a-memcpy-stub.o)
 .bss           0x00000000        0x0 c:/freescale/kds_v3/toolchain/bin/../lib/gcc/arm-none-eabi/4.8.4/../../../../arm-none-eabi/lib/armv7e-m/fpu\libg_s.a(lib_a-memcpy-stub.o)
 .text.memcpy   0x00000000       0x12 c:/freescale/kds_v3/toolchain/bin/../lib/gcc/arm-none-eabi/4.8.4/../../../../arm-none-eabi/lib/armv7e-m/fpu\libg_s.a(lib_a-memcpy-stub.o)
 .ARM.attributes
                0x00000000       0x34 c:/freescale/kds_v3/toolchain/bin/../lib/gcc/arm-none-eabi/4.8.4/../../../../arm-none-eabi/lib/armv7e-m/fpu\libg_s.a(lib_a-memcpy-stub.o)
 .debug_frame   0x00000000       0x28 c:/freescale/kds_v3/toolchain/bin/../lib/gcc/arm-none-eabi/4.8.4/../../../../arm-none-eabi/lib/armv7e-m/fpu\libg_s.a(lib_a-memcpy-stub.o)
 .text          0x00000000        0x0 c:/freescale/kds_v3/toolchain/bin/../lib/gcc/arm-none-eabi/4.8.4/../../../../arm-none-eabi/lib/armv7e-m/fpu\libg_s.a(lib_a-memmove.o)
 .data          0x00000000        0x0 c:/freescale/kds_v3/toolchain/bin/../lib/gcc/arm-none-eabi/4.8.4/../../../../arm-none-eabi/lib/armv7e-m/fpu\libg_s.a(lib_a-memmove.o)
 .bss           0x00000000        0x0 c:/freescale/kds_v3/toolchain/bin/../lib/gcc/arm-none-eabi/4.8.4/../../../../arm-none-eabi/lib/armv7e-m/fpu\libg_s.a(lib_a-memmove.o)
 .text.memmove  0x00000000       0x36 c:/freescale/kds_v3/toolchain/bin/../lib/gcc/arm-none-eabi/4.8.4/../../../../arm-none-eabi/lib/armv7e-m/fpu\libg_s.a(lib_a-memmove.o)
 .ARM.attributes
                0x00000000       0x34 c:/freescale/kds_v3/toolchain/bin/../lib/gcc/arm-none-eabi/4.8.4/../../../../arm-none-eabi/lib/armv7e-m/fpu\libg_s.a(lib_a-memmove.o)
 .debug_frame   0x00000000       0x2c c:/freescale/kds_v3/toolchain/bin/../lib/gcc/arm-none-eabi/4.8.4/../../../../arm-none-eabi/lib/armv7e-m/fpu\libg_s.a(lib_a-memmove.o)
 .text          0x00000000        0x0 c:/freescale/kds_v3/toolchain/bin/../lib/gcc/arm-none-eabi/4.8.4/../../../../arm-none-eabi/lib/armv7e-m/fpu\libg_s.a(lib_a-nano-reallocr.o)
 .data          0x00000000        0x0 c:/freescale/kds_v3/toolchain/bin/../lib/gcc/arm-none-eabi/4.8.4/../../../../arm-none-eabi/lib/armv7e-m/fpu\libg_s.a(lib_a-nano-reallocr.o)
 .bss           0x00000000        0x0 c:/freescale/kds_v3/toolchain/bin/../lib/gcc/arm-none-eabi/4.8.4/../../../../arm-none-eabi/lib/armv7e-m/fpu\libg_s.a(lib_a-nano-reallocr.o)
 .text._realloc_r
                0x00000000       0x4c c:/freescale/kds_v3/toolchain/bin/../lib/gcc/arm-none-eabi/4.8.4/../../../../arm-none-eabi/lib/armv7e-m/fpu\libg_s.a(lib_a-nano-reallocr.o)
 .ARM.attributes
                0x00000000       0x34 c:/freescale/kds_v3/toolchain/bin/../lib/gcc/arm-none-eabi/4.8.4/../../../../arm-none-eabi/lib/armv7e-m/fpu\libg_s.a(lib_a-nano-reallocr.o)
 .debug_frame   0x00000000       0x30 c:/freescale/kds_v3/toolchain/bin/../lib/gcc/arm-none-eabi/4.8.4/../../../../arm-none-eabi/lib/armv7e-m/fpu\libg_s.a(lib_a-nano-reallocr.o)
 .text          0x00000000        0x0 c:/freescale/kds_v3/toolchain/bin/../lib/gcc/arm-none-eabi/4.8.4/../../../../arm-none-eabi/lib/armv7e-m/fpu\libg_s.a(lib_a-reent.o)
 .data          0x00000000        0x0 c:/freescale/kds_v3/toolchain/bin/../lib/gcc/arm-none-eabi/4.8.4/../../../../arm-none-eabi/lib/armv7e-m/fpu\libg_s.a(lib_a-reent.o)
 .bss           0x00000000        0x0 c:/freescale/kds_v3/toolchain/bin/../lib/gcc/arm-none-eabi/4.8.4/../../../../arm-none-eabi/lib/armv7e-m/fpu\libg_s.a(lib_a-reent.o)
 .text.cleanup_glue
                0x00000000       0x1a c:/freescale/kds_v3/toolchain/bin/../lib/gcc/arm-none-eabi/4.8.4/../../../../arm-none-eabi/lib/armv7e-m/fpu\libg_s.a(lib_a-reent.o)
 .text._reclaim_reent
                0x00000000       0xbc c:/freescale/kds_v3/toolchain/bin/../lib/gcc/arm-none-eabi/4.8.4/../../../../arm-none-eabi/lib/armv7e-m/fpu\libg_s.a(lib_a-reent.o)
 .text          0x00000000        0x0 c:/freescale/kds_v3/toolchain/bin/../lib/gcc/arm-none-eabi/4.8.4/../../../../arm-none-eabi/lib/armv7e-m/fpu\libg_s.a(lib_a-signal.o)
 .data          0x00000000        0x0 c:/freescale/kds_v3/toolchain/bin/../lib/gcc/arm-none-eabi/4.8.4/../../../../arm-none-eabi/lib/armv7e-m/fpu\libg_s.a(lib_a-signal.o)
 .bss           0x00000000        0x0 c:/freescale/kds_v3/toolchain/bin/../lib/gcc/arm-none-eabi/4.8.4/../../../../arm-none-eabi/lib/armv7e-m/fpu\libg_s.a(lib_a-signal.o)
 .text._init_signal_r
                0x00000000       0x2c c:/freescale/kds_v3/toolchain/bin/../lib/gcc/arm-none-eabi/4.8.4/../../../../arm-none-eabi/lib/armv7e-m/fpu\libg_s.a(lib_a-signal.o)
 .text._signal_r
                0x00000000       0x30 c:/freescale/kds_v3/toolchain/bin/../lib/gcc/arm-none-eabi/4.8.4/../../../../arm-none-eabi/lib/armv7e-m/fpu\libg_s.a(lib_a-signal.o)
 .text.__sigtramp_r
                0x00000000       0x4a c:/freescale/kds_v3/toolchain/bin/../lib/gcc/arm-none-eabi/4.8.4/../../../../arm-none-eabi/lib/armv7e-m/fpu\libg_s.a(lib_a-signal.o)
 .text.signal   0x00000000       0x14 c:/freescale/kds_v3/toolchain/bin/../lib/gcc/arm-none-eabi/4.8.4/../../../../arm-none-eabi/lib/armv7e-m/fpu\libg_s.a(lib_a-signal.o)
 .text._init_signal
                0x00000000        0xc c:/freescale/kds_v3/toolchain/bin/../lib/gcc/arm-none-eabi/4.8.4/../../../../arm-none-eabi/lib/armv7e-m/fpu\libg_s.a(lib_a-signal.o)
 .text.__sigtramp
                0x00000000       0x10 c:/freescale/kds_v3/toolchain/bin/../lib/gcc/arm-none-eabi/4.8.4/../../../../arm-none-eabi/lib/armv7e-m/fpu\libg_s.a(lib_a-signal.o)
 .text          0x00000000        0x0 c:/freescale/kds_v3/toolchain/bin/../lib/gcc/arm-none-eabi/4.8.4/../../../../arm-none-eabi/lib/armv7e-m/fpu\libg_s.a(lib_a-signalr.o)
 .data          0x00000000        0x0 c:/freescale/kds_v3/toolchain/bin/../lib/gcc/arm-none-eabi/4.8.4/../../../../arm-none-eabi/lib/armv7e-m/fpu\libg_s.a(lib_a-signalr.o)
 .bss           0x00000000        0x0 c:/freescale/kds_v3/toolchain/bin/../lib/gcc/arm-none-eabi/4.8.4/../../../../arm-none-eabi/lib/armv7e-m/fpu\libg_s.a(lib_a-signalr.o)
 .text          0x00000000        0x0 c:/freescale/kds_v3/toolchain/bin/../lib/gcc/arm-none-eabi/4.8.4/../../../../arm-none-eabi/lib/armv7e-m/fpu\libg_s.a(lib_a-stdio.o)
 .data          0x00000000        0x0 c:/freescale/kds_v3/toolchain/bin/../lib/gcc/arm-none-eabi/4.8.4/../../../../arm-none-eabi/lib/armv7e-m/fpu\libg_s.a(lib_a-stdio.o)
 .bss           0x00000000        0x0 c:/freescale/kds_v3/toolchain/bin/../lib/gcc/arm-none-eabi/4.8.4/../../../../arm-none-eabi/lib/armv7e-m/fpu\libg_s.a(lib_a-stdio.o)
 .text.__seofread
                0x00000000        0x4 c:/freescale/kds_v3/toolchain/bin/../lib/gcc/arm-none-eabi/4.8.4/../../../../arm-none-eabi/lib/armv7e-m/fpu\libg_s.a(lib_a-stdio.o)
 .text          0x00000000        0x0 c:/freescale/kds_v3/toolchain/bin/../lib/gcc/arm-none-eabi/4.8.4/../../../../arm-none-eabi/lib/armv7e-m/fpu\libg_s.a(lib_a-strlen.o)
 .data          0x00000000        0x0 c:/freescale/kds_v3/toolchain/bin/../lib/gcc/arm-none-eabi/4.8.4/../../../../arm-none-eabi/lib/armv7e-m/fpu\libg_s.a(lib_a-strlen.o)
 .bss           0x00000000        0x0 c:/freescale/kds_v3/toolchain/bin/../lib/gcc/arm-none-eabi/4.8.4/../../../../arm-none-eabi/lib/armv7e-m/fpu\libg_s.a(lib_a-strlen.o)
 .text          0x00000000        0x0 c:/freescale/kds_v3/toolchain/bin/../lib/gcc/arm-none-eabi/4.8.4/../../../../arm-none-eabi/lib/armv7e-m/fpu\libg_s.a(lib_a-svfprintf.o)
 .data          0x00000000        0x0 c:/freescale/kds_v3/toolchain/bin/../lib/gcc/arm-none-eabi/4.8.4/../../../../arm-none-eabi/lib/armv7e-m/fpu\libg_s.a(lib_a-svfprintf.o)
 .bss           0x00000000        0x0 c:/freescale/kds_v3/toolchain/bin/../lib/gcc/arm-none-eabi/4.8.4/../../../../arm-none-eabi/lib/armv7e-m/fpu\libg_s.a(lib_a-svfprintf.o)
 .text.__ssputs_r
                0x00000000       0xb8 c:/freescale/kds_v3/toolchain/bin/../lib/gcc/arm-none-eabi/4.8.4/../../../../arm-none-eabi/lib/armv7e-m/fpu\libg_s.a(lib_a-svfprintf.o)
 .text.__ssprint_r
                0x00000000       0xf2 c:/freescale/kds_v3/toolchain/bin/../lib/gcc/arm-none-eabi/4.8.4/../../../../arm-none-eabi/lib/armv7e-m/fpu\libg_s.a(lib_a-svfprintf.o)
 .text._svfprintf_r
                0x00000000      0x1dc c:/freescale/kds_v3/toolchain/bin/../lib/gcc/arm-none-eabi/4.8.4/../../../../arm-none-eabi/lib/armv7e-m/fpu\libg_s.a(lib_a-svfprintf.o)
 .rodata.str1.1
                0x00000000       0x11 c:/freescale/kds_v3/toolchain/bin/../lib/gcc/arm-none-eabi/4.8.4/../../../../arm-none-eabi/lib/armv7e-m/fpu\libg_s.a(lib_a-svfprintf.o)
 .ARM.attributes
                0x00000000       0x34 c:/freescale/kds_v3/toolchain/bin/../lib/gcc/arm-none-eabi/4.8.4/../../../../arm-none-eabi/lib/armv7e-m/fpu\libg_s.a(lib_a-svfprintf.o)
 .debug_frame   0x00000000       0x88 c:/freescale/kds_v3/toolchain/bin/../lib/gcc/arm-none-eabi/4.8.4/../../../../arm-none-eabi/lib/armv7e-m/fpu\libg_s.a(lib_a-svfprintf.o)
 .text          0x00000000        0x0 c:/freescale/kds_v3/toolchain/bin/../lib/gcc/arm-none-eabi/4.8.4/../../../../arm-none-eabi/lib/armv7e-m/fpu\libg_s.a(lib_a-writer.o)
 .data          0x00000000        0x0 c:/freescale/kds_v3/toolchain/bin/../lib/gcc/arm-none-eabi/4.8.4/../../../../arm-none-eabi/lib/armv7e-m/fpu\libg_s.a(lib_a-writer.o)
 .bss           0x00000000        0x0 c:/freescale/kds_v3/toolchain/bin/../lib/gcc/arm-none-eabi/4.8.4/../../../../arm-none-eabi/lib/armv7e-m/fpu\libg_s.a(lib_a-writer.o)
 .text          0x00000000        0x0 c:/freescale/kds_v3/toolchain/bin/../lib/gcc/arm-none-eabi/4.8.4/../../../../arm-none-eabi/lib/armv7e-m/fpu\libg_s.a(lib_a-closer.o)
 .data          0x00000000        0x0 c:/freescale/kds_v3/toolchain/bin/../lib/gcc/arm-none-eabi/4.8.4/../../../../arm-none-eabi/lib/armv7e-m/fpu\libg_s.a(lib_a-closer.o)
 .bss           0x00000000        0x0 c:/freescale/kds_v3/toolchain/bin/../lib/gcc/arm-none-eabi/4.8.4/../../../../arm-none-eabi/lib/armv7e-m/fpu\libg_s.a(lib_a-closer.o)
 .text          0x00000000        0x0 c:/freescale/kds_v3/toolchain/bin/../lib/gcc/arm-none-eabi/4.8.4/../../../../arm-none-eabi/lib/armv7e-m/fpu\libg_s.a(lib_a-fstatr.o)
 .data          0x00000000        0x0 c:/freescale/kds_v3/toolchain/bin/../lib/gcc/arm-none-eabi/4.8.4/../../../../arm-none-eabi/lib/armv7e-m/fpu\libg_s.a(lib_a-fstatr.o)
 .bss           0x00000000        0x0 c:/freescale/kds_v3/toolchain/bin/../lib/gcc/arm-none-eabi/4.8.4/../../../../arm-none-eabi/lib/armv7e-m/fpu\libg_s.a(lib_a-fstatr.o)
 .text          0x00000000        0x0 c:/freescale/kds_v3/toolchain/bin/../lib/gcc/arm-none-eabi/4.8.4/../../../../arm-none-eabi/lib/armv7e-m/fpu\libg_s.a(lib_a-isattyr.o)
 .data          0x00000000        0x0 c:/freescale/kds_v3/toolchain/bin/../lib/gcc/arm-none-eabi/4.8.4/../../../../arm-none-eabi/lib/armv7e-m/fpu\libg_s.a(lib_a-isattyr.o)
 .bss           0x00000000        0x0 c:/freescale/kds_v3/toolchain/bin/../lib/gcc/arm-none-eabi/4.8.4/../../../../arm-none-eabi/lib/armv7e-m/fpu\libg_s.a(lib_a-isattyr.o)
 .text          0x00000000        0x0 c:/freescale/kds_v3/toolchain/bin/../lib/gcc/arm-none-eabi/4.8.4/../../../../arm-none-eabi/lib/armv7e-m/fpu\libg_s.a(lib_a-lseekr.o)
 .data          0x00000000        0x0 c:/freescale/kds_v3/toolchain/bin/../lib/gcc/arm-none-eabi/4.8.4/../../../../arm-none-eabi/lib/armv7e-m/fpu\libg_s.a(lib_a-lseekr.o)
 .bss           0x00000000        0x0 c:/freescale/kds_v3/toolchain/bin/../lib/gcc/arm-none-eabi/4.8.4/../../../../arm-none-eabi/lib/armv7e-m/fpu\libg_s.a(lib_a-lseekr.o)
 .text          0x00000000        0x0 c:/freescale/kds_v3/toolchain/bin/../lib/gcc/arm-none-eabi/4.8.4/../../../../arm-none-eabi/lib/armv7e-m/fpu\libg_s.a(lib_a-nano-msizer.o)
 .data          0x00000000        0x0 c:/freescale/kds_v3/toolchain/bin/../lib/gcc/arm-none-eabi/4.8.4/../../../../arm-none-eabi/lib/armv7e-m/fpu\libg_s.a(lib_a-nano-msizer.o)
 .bss           0x00000000        0x0 c:/freescale/kds_v3/toolchain/bin/../lib/gcc/arm-none-eabi/4.8.4/../../../../arm-none-eabi/lib/armv7e-m/fpu\libg_s.a(lib_a-nano-msizer.o)
 .text._malloc_usable_size_r
                0x00000000       0x12 c:/freescale/kds_v3/toolchain/bin/../lib/gcc/arm-none-eabi/4.8.4/../../../../arm-none-eabi/lib/armv7e-m/fpu\libg_s.a(lib_a-nano-msizer.o)
 .ARM.attributes
                0x00000000       0x34 c:/freescale/kds_v3/toolchain/bin/../lib/gcc/arm-none-eabi/4.8.4/../../../../arm-none-eabi/lib/armv7e-m/fpu\libg_s.a(lib_a-nano-msizer.o)
 .debug_frame   0x00000000       0x20 c:/freescale/kds_v3/toolchain/bin/../lib/gcc/arm-none-eabi/4.8.4/../../../../arm-none-eabi/lib/armv7e-m/fpu\libg_s.a(lib_a-nano-msizer.o)
 .text          0x00000000        0x0 c:/freescale/kds_v3/toolchain/bin/../lib/gcc/arm-none-eabi/4.8.4/../../../../arm-none-eabi/lib/armv7e-m/fpu\libg_s.a(lib_a-readr.o)
 .data          0x00000000        0x0 c:/freescale/kds_v3/toolchain/bin/../lib/gcc/arm-none-eabi/4.8.4/../../../../arm-none-eabi/lib/armv7e-m/fpu\libg_s.a(lib_a-readr.o)
 .bss           0x00000000        0x0 c:/freescale/kds_v3/toolchain/bin/../lib/gcc/arm-none-eabi/4.8.4/../../../../arm-none-eabi/lib/armv7e-m/fpu\libg_s.a(lib_a-readr.o)
 .text          0x00000000        0x0 c:/freescale/kds_v3/toolchain/bin/../lib/gcc/arm-none-eabi/4.8.4/../../../../arm-none-eabi/lib/armv7e-m/fpu\libnosys.a(close.o)
 .data          0x00000000        0x0 c:/freescale/kds_v3/toolchain/bin/../lib/gcc/arm-none-eabi/4.8.4/../../../../arm-none-eabi/lib/armv7e-m/fpu\libnosys.a(close.o)
 .bss           0x00000000        0x0 c:/freescale/kds_v3/toolchain/bin/../lib/gcc/arm-none-eabi/4.8.4/../../../../arm-none-eabi/lib/armv7e-m/fpu\libnosys.a(close.o)
 .text          0x00000000        0x0 c:/freescale/kds_v3/toolchain/bin/../lib/gcc/arm-none-eabi/4.8.4/../../../../arm-none-eabi/lib/armv7e-m/fpu\libnosys.a(fstat.o)
 .data          0x00000000        0x0 c:/freescale/kds_v3/toolchain/bin/../lib/gcc/arm-none-eabi/4.8.4/../../../../arm-none-eabi/lib/armv7e-m/fpu\libnosys.a(fstat.o)
 .bss           0x00000000        0x0 c:/freescale/kds_v3/toolchain/bin/../lib/gcc/arm-none-eabi/4.8.4/../../../../arm-none-eabi/lib/armv7e-m/fpu\libnosys.a(fstat.o)
 .text          0x00000000        0x0 c:/freescale/kds_v3/toolchain/bin/../lib/gcc/arm-none-eabi/4.8.4/../../../../arm-none-eabi/lib/armv7e-m/fpu\libnosys.a(getpid.o)
 .data          0x00000000        0x0 c:/freescale/kds_v3/toolchain/bin/../lib/gcc/arm-none-eabi/4.8.4/../../../../arm-none-eabi/lib/armv7e-m/fpu\libnosys.a(getpid.o)
 .bss           0x00000000        0x0 c:/freescale/kds_v3/toolchain/bin/../lib/gcc/arm-none-eabi/4.8.4/../../../../arm-none-eabi/lib/armv7e-m/fpu\libnosys.a(getpid.o)
 .text          0x00000000        0x0 c:/freescale/kds_v3/toolchain/bin/../lib/gcc/arm-none-eabi/4.8.4/../../../../arm-none-eabi/lib/armv7e-m/fpu\libnosys.a(isatty.o)
 .data          0x00000000        0x0 c:/freescale/kds_v3/toolchain/bin/../lib/gcc/arm-none-eabi/4.8.4/../../../../arm-none-eabi/lib/armv7e-m/fpu\libnosys.a(isatty.o)
 .bss           0x00000000        0x0 c:/freescale/kds_v3/toolchain/bin/../lib/gcc/arm-none-eabi/4.8.4/../../../../arm-none-eabi/lib/armv7e-m/fpu\libnosys.a(isatty.o)
 .text          0x00000000        0x0 c:/freescale/kds_v3/toolchain/bin/../lib/gcc/arm-none-eabi/4.8.4/../../../../arm-none-eabi/lib/armv7e-m/fpu\libnosys.a(kill.o)
 .data          0x00000000        0x0 c:/freescale/kds_v3/toolchain/bin/../lib/gcc/arm-none-eabi/4.8.4/../../../../arm-none-eabi/lib/armv7e-m/fpu\libnosys.a(kill.o)
 .bss           0x00000000        0x0 c:/freescale/kds_v3/toolchain/bin/../lib/gcc/arm-none-eabi/4.8.4/../../../../arm-none-eabi/lib/armv7e-m/fpu\libnosys.a(kill.o)
 .text          0x00000000        0x0 c:/freescale/kds_v3/toolchain/bin/../lib/gcc/arm-none-eabi/4.8.4/../../../../arm-none-eabi/lib/armv7e-m/fpu\libnosys.a(lseek.o)
 .data          0x00000000        0x0 c:/freescale/kds_v3/toolchain/bin/../lib/gcc/arm-none-eabi/4.8.4/../../../../arm-none-eabi/lib/armv7e-m/fpu\libnosys.a(lseek.o)
 .bss           0x00000000        0x0 c:/freescale/kds_v3/toolchain/bin/../lib/gcc/arm-none-eabi/4.8.4/../../../../arm-none-eabi/lib/armv7e-m/fpu\libnosys.a(lseek.o)
 .text          0x00000000        0x0 c:/freescale/kds_v3/toolchain/bin/../lib/gcc/arm-none-eabi/4.8.4/../../../../arm-none-eabi/lib/armv7e-m/fpu\libnosys.a(read.o)
 .data          0x00000000        0x0 c:/freescale/kds_v3/toolchain/bin/../lib/gcc/arm-none-eabi/4.8.4/../../../../arm-none-eabi/lib/armv7e-m/fpu\libnosys.a(read.o)
 .bss           0x00000000        0x0 c:/freescale/kds_v3/toolchain/bin/../lib/gcc/arm-none-eabi/4.8.4/../../../../arm-none-eabi/lib/armv7e-m/fpu\libnosys.a(read.o)
 .text          0x00000000        0x0 c:/freescale/kds_v3/toolchain/bin/../lib/gcc/arm-none-eabi/4.8.4/../../../../arm-none-eabi/lib/armv7e-m/fpu\libnosys.a(sbrk.o)
 .data          0x00000000        0x0 c:/freescale/kds_v3/toolchain/bin/../lib/gcc/arm-none-eabi/4.8.4/../../../../arm-none-eabi/lib/armv7e-m/fpu\libnosys.a(sbrk.o)
 .bss           0x00000000        0x0 c:/freescale/kds_v3/toolchain/bin/../lib/gcc/arm-none-eabi/4.8.4/../../../../arm-none-eabi/lib/armv7e-m/fpu\libnosys.a(sbrk.o)
 .text          0x00000000        0x0 c:/freescale/kds_v3/toolchain/bin/../lib/gcc/arm-none-eabi/4.8.4/../../../../arm-none-eabi/lib/armv7e-m/fpu\libnosys.a(write.o)
 .data          0x00000000        0x0 c:/freescale/kds_v3/toolchain/bin/../lib/gcc/arm-none-eabi/4.8.4/../../../../arm-none-eabi/lib/armv7e-m/fpu\libnosys.a(write.o)
 .bss           0x00000000        0x0 c:/freescale/kds_v3/toolchain/bin/../lib/gcc/arm-none-eabi/4.8.4/../../../../arm-none-eabi/lib/armv7e-m/fpu\libnosys.a(write.o)
 .text          0x00000000        0x0 c:/freescale/kds_v3/toolchain/bin/../lib/gcc/arm-none-eabi/4.8.4/../../../../arm-none-eabi/lib/armv7e-m/fpu\libnosys.a(_exit.o)
 .data          0x00000000        0x0 c:/freescale/kds_v3/toolchain/bin/../lib/gcc/arm-none-eabi/4.8.4/../../../../arm-none-eabi/lib/armv7e-m/fpu\libnosys.a(_exit.o)
 .bss           0x00000000        0x0 c:/freescale/kds_v3/toolchain/bin/../lib/gcc/arm-none-eabi/4.8.4/../../../../arm-none-eabi/lib/armv7e-m/fpu\libnosys.a(_exit.o)
 .text          0x00000000        0x0 c:/freescale/kds_v3/toolchain/bin/../lib/gcc/arm-none-eabi/4.8.4/armv7e-m/fpu/crtend.o
 .data          0x00000000        0x0 c:/freescale/kds_v3/toolchain/bin/../lib/gcc/arm-none-eabi/4.8.4/armv7e-m/fpu/crtend.o
 .bss           0x00000000        0x0 c:/freescale/kds_v3/toolchain/bin/../lib/gcc/arm-none-eabi/4.8.4/armv7e-m/fpu/crtend.o
 .eh_frame      0x00000000        0x4 c:/freescale/kds_v3/toolchain/bin/../lib/gcc/arm-none-eabi/4.8.4/armv7e-m/fpu/crtend.o
 .text          0x00000000        0x0 c:/freescale/kds_v3/toolchain/bin/../lib/gcc/arm-none-eabi/4.8.4/armv7e-m/fpu/crtn.o
 .data          0x00000000        0x0 c:/freescale/kds_v3/toolchain/bin/../lib/gcc/arm-none-eabi/4.8.4/armv7e-m/fpu/crtn.o
 .bss           0x00000000        0x0 c:/freescale/kds_v3/toolchain/bin/../lib/gcc/arm-none-eabi/4.8.4/armv7e-m/fpu/crtn.o

Memory Configuration

Name             Origin             Length             Attributes
m_interrupts     0x00000000         0x00000400         xr
m_text           0x00000410         0x000ffbf0         xr
m_interrupts_ram 0x1fff0000         0x00000400         rw
m_data_1FFF0400  0x1fff0400         0x0000fc00         rw
m_data           0x20000000         0x00030000         rw
m_flash_config   0x00000400         0x00000010         xr
*default*        0x00000000         0xffffffff

Linker script and memory map

LOAD c:/freescale/kds_v3/toolchain/bin/../lib/gcc/arm-none-eabi/4.8.4/armv7e-m/fpu/crti.o
LOAD c:/freescale/kds_v3/toolchain/bin/../lib/gcc/arm-none-eabi/4.8.4/armv7e-m/fpu/crtbegin.o
LOAD c:/freescale/kds_v3/toolchain/bin/../lib/gcc/arm-none-eabi/4.8.4/../../../../arm-none-eabi/lib/armv7e-m/fpu/crt0.o
LOAD ./uCOS-III/Source/os_cfg_app.o
LOAD ./uCOS-III/Source/os_core.o
LOAD ./uCOS-III/Source/os_dbg.o
LOAD ./uCOS-III/Source/os_flag.o
LOAD ./uCOS-III/Source/os_int.o
LOAD ./uCOS-III/Source/os_mem.o
LOAD ./uCOS-III/Source/os_msg.o
LOAD ./uCOS-III/Source/os_mutex.o
LOAD ./uCOS-III/Source/os_pend_multi.o
LOAD ./uCOS-III/Source/os_prio.o
LOAD ./uCOS-III/Source/os_q.o
LOAD ./uCOS-III/Source/os_sem.o
LOAD ./uCOS-III/Source/os_stat.o
LOAD ./uCOS-III/Source/os_task.o
LOAD ./uCOS-III/Source/os_tick.o
LOAD ./uCOS-III/Source/os_time.o
LOAD ./uCOS-III/Source/os_tmr.o
LOAD ./uCOS-III/Source/os_var.o
LOAD ./uCOS-III/Ports/ARM-Cortex-M4/Generic/GNU/os_cpu_a.o
LOAD ./uCOS-III/Ports/ARM-Cortex-M4/Generic/GNU/os_cpu_c.o
LOAD ./uC-LIB/lib_ascii.o
LOAD ./uC-LIB/lib_math.o
LOAD ./uC-LIB/lib_mem.o
LOAD ./uC-LIB/lib_str.o
LOAD ./uC-CPU/ARM-Cortex-M4/GNU/cpu_a.o
LOAD ./uC-CPU/ARM-Cortex-M4/GNU/cpu_c.o
LOAD ./uC-CPU/cpu_core.o
LOAD ./KSDK/platform/system/interrupt/src/fsl_interrupt_manager.o
LOAD ./KSDK/platform/system/clock/MK64F12/fsl_clock_K64F12.o
LOAD ./KSDK/platform/system/clock/fsl_clock_manager.o
LOAD ./KSDK/platform/startup/MK64F12/system_MK64F12.o
LOAD ./KSDK/platform/osa/src/fsl_os_abstraction_ucosiii.o
LOAD ./KSDK/platform/hal/uart/fsl_uart_hal.o
LOAD ./KSDK/platform/hal/sim/MK64F12/fsl_sim_hal_K64F12.o
LOAD ./KSDK/platform/hal/sim/fsl_sim_hal.o
LOAD ./KSDK/platform/hal/port/fsl_port_hal.o
LOAD ./KSDK/platform/hal/mcg/fsl_mcg_hal.o
LOAD ./KSDK/platform/hal/gpio/fsl_gpio_hal.o
LOAD ./KSDK/platform/drivers/uart/src/fsl_uart_driver.o
LOAD ./KSDK/platform/drivers/uart/common/fsl_uart_common.o
LOAD ./KSDK/platform/drivers/gpio/src/fsl_gpio_driver.o
LOAD ./KSDK/platform/drivers/gpio/common/fsl_gpio_common.o
LOAD ./KSDK/boards/frdmk64f120m/gpio_pins.o
LOAD ./KSDK/boards/frdmk64f120m/hardware_init.o
LOAD ./KSDK/boards/frdmk64f120m/pin_mux.o
LOAD ./BSP/KSDK/KDS/startup_MK64F12.o
LOAD ./BSP/KSDK/startup.o
LOAD ./BSP/bsp_ser.o
LOAD ./BSP/cpu_bsp.o
LOAD ./APP/app.o
LOAD ./APP/os_app_hooks.o
LOAD c:/freescale/kds_v3/toolchain/bin/../lib/gcc/arm-none-eabi/4.8.4/../../../../arm-none-eabi/lib/armv7e-m/fpu\libm.a
START GROUP
LOAD c:/freescale/kds_v3/toolchain/bin/../lib/gcc/arm-none-eabi/4.8.4/armv7e-m/fpu\libgcc.a
LOAD c:/freescale/kds_v3/toolchain/bin/../lib/gcc/arm-none-eabi/4.8.4/../../../../arm-none-eabi/lib/armv7e-m/fpu\libg_s.a
LOAD c:/freescale/kds_v3/toolchain/bin/../lib/gcc/arm-none-eabi/4.8.4/../../../../arm-none-eabi/lib/armv7e-m/fpu\libc_s.a
END GROUP
START GROUP
LOAD c:/freescale/kds_v3/toolchain/bin/../lib/gcc/arm-none-eabi/4.8.4/armv7e-m/fpu\libgcc.a
LOAD c:/freescale/kds_v3/toolchain/bin/../lib/gcc/arm-none-eabi/4.8.4/../../../../arm-none-eabi/lib/armv7e-m/fpu\libc_s.a
LOAD c:/freescale/kds_v3/toolchain/bin/../lib/gcc/arm-none-eabi/4.8.4/../../../../arm-none-eabi/lib/armv7e-m/fpu\libnosys.a
END GROUP
START GROUP
LOAD c:/freescale/kds_v3/toolchain/bin/../lib/gcc/arm-none-eabi/4.8.4/armv7e-m/fpu\libgcc.a
LOAD c:/freescale/kds_v3/toolchain/bin/../lib/gcc/arm-none-eabi/4.8.4/../../../../arm-none-eabi/lib/armv7e-m/fpu\libc_s.a
LOAD c:/freescale/kds_v3/toolchain/bin/../lib/gcc/arm-none-eabi/4.8.4/../../../../arm-none-eabi/lib/armv7e-m/fpu\libnosys.a
END GROUP
LOAD c:/freescale/kds_v3/toolchain/bin/../lib/gcc/arm-none-eabi/4.8.4/armv7e-m/fpu/crtend.o
LOAD c:/freescale/kds_v3/toolchain/bin/../lib/gcc/arm-none-eabi/4.8.4/armv7e-m/fpu/crtn.o
                0x00008000                HEAP_SIZE = DEFINED (__heap_size__)?__heap_size__:0x8000
                0x00004000                STACK_SIZE = DEFINED (__stack_size__)?__stack_size__:0x4000

.interrupts     0x00000000      0x400
                0x00000000                __VECTOR_TABLE = .
                0x00000000                . = ALIGN (0x4)
 *(.isr_vector)
 .isr_vector    0x00000000      0x400 ./BSP/KSDK/KDS/startup_MK64F12.o
                0x00000000                __isr_vector
                0x00000400                . = ALIGN (0x4)
                0x1fff0000                __VECTOR_RAM = ORIGIN (m_interrupts_ram)

.flash_config   0x00000400       0x10
                0x00000400                . = ALIGN (0x4)
 *(.FlashConfig)
 .FlashConfig   0x00000400       0x10 ./BSP/KSDK/KDS/startup_MK64F12.o
                0x00000410                . = ALIGN (0x4)

.text           0x00000410     0x70c0
                0x00000410                . = ALIGN (0x4)
 *(.text)
 .text          0x00000410       0x54 c:/freescale/kds_v3/toolchain/bin/../lib/gcc/arm-none-eabi/4.8.4/armv7e-m/fpu/crtbegin.o
 .text          0x00000464       0x74 c:/freescale/kds_v3/toolchain/bin/../lib/gcc/arm-none-eabi/4.8.4/../../../../arm-none-eabi/lib/armv7e-m/fpu/crt0.o
                0x00000464                _start
                0x00000464                _mainCRTStartup
 .text          0x000004d8       0xfc ./uCOS-III/Ports/ARM-Cortex-M4/Generic/GNU/os_cpu_a.o
                0x000004d8                OS_CPU_FP_Reg_Push
                0x000004ea                OS_CPU_FP_Reg_Pop
                0x000004f6                OSStartHighRdy
                0x00000566                OSCtxSw
                0x0000056e                OSIntCtxSw
                0x00000576                PendSV_Handler
 .text          0x000005d4       0x34 ./uC-CPU/ARM-Cortex-M4/GNU/cpu_a.o
                0x000005d4                CPU_IntDis
                0x000005d8                CPU_IntEn
                0x000005dc                CPU_SR_Save
                0x000005e4                CPU_SR_Restore
                0x000005ea                CPU_WaitForInt
                0x000005ee                CPU_WaitForExcept
                0x000005f2                CPU_CntLeadZeros
                0x000005f8                CPU_CntTrailZeros
                0x00000602                CPU_RevBits
 .text          0x00000608       0x3c ./BSP/KSDK/KDS/startup_MK64F12.o
                0x00000608                Reset_Handler
                0x00000640                DebugMon_Handler
                0x00000640                I2C0_IRQHandler
                0x00000640                HardFault_Handler
                0x00000640                UART3_RX_TX_IRQHandler
                0x00000640                NMI_Handler
                0x00000640                UART0_RX_TX_IRQHandler
                0x00000640                I2C1_IRQHandler
                0x00000640                DMA2_IRQHandler
                0x00000640                ENET_Error_IRQHandler
                0x00000640                CAN0_Tx_Warning_IRQHandler
                0x00000640                PIT0_IRQHandler
                0x00000640                CAN0_ORed_Message_buffer_IRQHandler
                0x00000640                Watchdog_IRQHandler
                0x00000640                CMP2_IRQHandler
                0x00000640                ENET_Receive_IRQHandler
                0x00000640                ENET_1588_Timer_IRQHandler
                0x00000640                UART2_RX_TX_IRQHandler
                0x00000640                SWI_IRQHandler
                0x00000640                ADC0_IRQHandler
                0x00000640                UsageFault_Handler
                0x00000640                I2S0_Tx_IRQHandler
                0x00000640                CMT_IRQHandler
                0x00000640                UART4_RX_TX_IRQHandler
                0x00000640                SPI1_IRQHandler
                0x00000640                DefaultISR
                0x00000640                DMA9_IRQHandler
                0x00000640                DMA14_IRQHandler
                0x00000640                CMP1_IRQHandler
                0x00000640                Reserved71_IRQHandler
                0x00000640                PORTD_IRQHandler
                0x00000640                PORTB_IRQHandler
                0x00000640                UART4_ERR_IRQHandler
                0x00000640                ADC1_IRQHandler
                0x00000640                I2C2_IRQHandler
                0x00000640                PIT2_IRQHandler
                0x00000640                I2S0_Rx_IRQHandler
                0x00000640                LPTimer_IRQHandler
                0x00000640                DMA5_IRQHandler
                0x00000640                RTC_IRQHandler
                0x00000640                PDB0_IRQHandler
                0x00000640                CAN0_Rx_Warning_IRQHandler
                0x00000640                FTM1_IRQHandler
                0x00000640                UART5_RX_TX_IRQHandler
                0x00000640                UART3_ERR_IRQHandler
                0x00000640                PIT3_IRQHandler
                0x00000640                SDHC_IRQHandler
                0x00000640                RTC_Seconds_IRQHandler
                0x00000640                MCG_IRQHandler
                0x00000640                FTFE_IRQHandler
                0x00000640                UART2_ERR_IRQHandler
                0x00000640                DMA11_IRQHandler
                0x00000640                UART5_ERR_IRQHandler
                0x00000640                Read_Collision_IRQHandler
                0x00000640                Default_Handler
                0x00000640                DMA7_IRQHandler
                0x00000640                ENET_Transmit_IRQHandler
                0x00000640                USBDCD_IRQHandler
                0x00000640                USB0_IRQHandler
                0x00000640                LLW_IRQHandler
                0x00000640                SPI2_IRQHandler
                0x00000640                MemManage_Handler
                0x00000640                SVC_Handler
                0x00000640                DMA13_IRQHandler
                0x00000640                DMA3_IRQHandler
                0x00000640                UART0_LON_IRQHandler
                0x00000640                RNG_IRQHandler
                0x00000640                DMA0_IRQHandler
                0x00000640                DMA15_IRQHandler
                0x00000640                DAC0_IRQHandler
                0x00000640                CAN0_Error_IRQHandler
                0x00000640                DMA4_IRQHandler
                0x00000640                PIT1_IRQHandler
                0x00000640                UART0_ERR_IRQHandler
                0x00000640                DMA_Error_IRQHandler
                0x00000640                LVD_LVW_IRQHandler
                0x00000640                SPI0_IRQHandler
                0x00000640                FTM0_IRQHandler
                0x00000640                PORTA_IRQHandler
                0x00000640                DAC1_IRQHandler
                0x00000640                MCM_IRQHandler
                0x00000640                DMA12_IRQHandler
                0x00000640                CAN0_Bus_Off_IRQHandler
                0x00000640                FTM3_IRQHandler
                0x00000640                PORTE_IRQHandler
                0x00000640                FTM2_IRQHandler
                0x00000640                BusFault_Handler
                0x00000640                DMA8_IRQHandler
                0x00000640                DMA10_IRQHandler
                0x00000640                CAN0_Wake_Up_IRQHandler
                0x00000640                UART1_ERR_IRQHandler
                0x00000640                UART1_RX_TX_IRQHandler
                0x00000640                CMP0_IRQHandler
                0x00000640                PORTC_IRQHandler
                0x00000640                DMA6_IRQHandler
                0x00000640                DMA1_IRQHandler
 *(.text*)
 .text.OSCfg_Init
                0x00000644        0xc ./uCOS-III/Source/os_cfg_app.o
                0x00000644                OSCfg_Init
 .text.OSInit   0x00000650      0x1d4 ./uCOS-III/Source/os_core.o
                0x00000650                OSInit
 .text.OSIntEnter
                0x00000824       0x34 ./uCOS-III/Source/os_core.o
                0x00000824                OSIntEnter
 .text.OSIntExit
                0x00000858       0xc0 ./uCOS-III/Source/os_core.o
                0x00000858                OSIntExit
 .text.OSSched  0x00000918       0x94 ./uCOS-III/Source/os_core.o
                0x00000918                OSSched
 .text.OSSchedLock
                0x000009ac       0x54 ./uCOS-III/Source/os_core.o
                0x000009ac                OSSchedLock
 .text.OSSchedUnlock
                0x00000a00       0x70 ./uCOS-III/Source/os_core.o
                0x00000a00                OSSchedUnlock
 .text.OSSchedRoundRobinCfg
                0x00000a70       0x64 ./uCOS-III/Source/os_core.o
                0x00000a70                OSSchedRoundRobinCfg
 .text.OSStart  0x00000ad4       0x80 ./uCOS-III/Source/os_core.o
                0x00000ad4                OSStart
 .text.OS_IdleTask
                0x00000b54       0x34 ./uCOS-III/Source/os_core.o
                0x00000b54                OS_IdleTask
 .text.OS_IdleTaskInit
                0x00000b88       0x68 ./uCOS-III/Source/os_core.o
                0x00000b88                OS_IdleTaskInit
 .text.OS_Pend  0x00000bf0       0x84 ./uCOS-III/Source/os_core.o
                0x00000bf0                OS_Pend
 .text.OS_PendDataInit
                0x00000c74       0x6c ./uCOS-III/Source/os_core.o
                0x00000c74                OS_PendDataInit
 .text.OS_PendDbgNameAdd
                0x00000ce0       0x7c ./uCOS-III/Source/os_core.o
                0x00000ce0                OS_PendDbgNameAdd
 .text.OS_PendDbgNameRemove
                0x00000d5c       0x48 ./uCOS-III/Source/os_core.o
                0x00000d5c                OS_PendDbgNameRemove
 .text.OS_PendListChangePrio
                0x00000da4       0x54 ./uCOS-III/Source/os_core.o
                0x00000da4                OS_PendListChangePrio
 .text.OS_PendListInit
                0x00000df8       0x24 ./uCOS-III/Source/os_core.o
                0x00000df8                OS_PendListInit
 .text.OS_PendListInsertPrio
                0x00000e1c       0xe4 ./uCOS-III/Source/os_core.o
                0x00000e1c                OS_PendListInsertPrio
 .text.OS_PendListRemove
                0x00000f00       0x54 ./uCOS-III/Source/os_core.o
                0x00000f00                OS_PendListRemove
 .text.OS_PendListRemove1
                0x00000f54       0x94 ./uCOS-III/Source/os_core.o
                0x00000f54                OS_PendListRemove1
 .text.OS_Post  0x00000fe8      0x12c ./uCOS-III/Source/os_core.o
                0x00000fe8                OS_Post
 .text.OS_Post1
                0x00001114       0x60 ./uCOS-III/Source/os_core.o
                0x00001114                OS_Post1
 .text.OS_RdyListInit
                0x00001174       0x48 ./uCOS-III/Source/os_core.o
                0x00001174                OS_RdyListInit
 .text.OS_RdyListInsert
                0x000011bc       0x3c ./uCOS-III/Source/os_core.o
                0x000011bc                OS_RdyListInsert
 .text.OS_RdyListInsertHead
                0x000011f8       0x80 ./uCOS-III/Source/os_core.o
                0x000011f8                OS_RdyListInsertHead
 .text.OS_RdyListInsertTail
                0x00001278       0x80 ./uCOS-III/Source/os_core.o
                0x00001278                OS_RdyListInsertTail
 .text.OS_RdyListMoveHeadToTail
                0x000012f8       0x90 ./uCOS-III/Source/os_core.o
                0x000012f8                OS_RdyListMoveHeadToTail
 .text.OS_RdyListRemove
                0x00001388       0xac ./uCOS-III/Source/os_core.o
                0x00001388                OS_RdyListRemove
 .text.OS_SchedRoundRobin
                0x00001434       0xb4 ./uCOS-III/Source/os_core.o
                0x00001434                OS_SchedRoundRobin
 .text.OS_TaskBlock
                0x000014e8       0x3c ./uCOS-III/Source/os_core.o
                0x000014e8                OS_TaskBlock
 .text.OS_Dbg_Init
                0x00001524      0x238 ./uCOS-III/Source/os_dbg.o
                0x00001524                OS_Dbg_Init
 .text.OS_FlagInit
                0x0000175c       0x2c ./uCOS-III/Source/os_flag.o
                0x0000175c                OS_FlagInit
 .text.OS_MemInit
                0x00001788       0x2c ./uCOS-III/Source/os_mem.o
                0x00001788                OS_MemInit
 .text.OS_MsgPoolInit
                0x000017b4       0xac ./uCOS-III/Source/os_msg.o
                0x000017b4                OS_MsgPoolInit
 .text.OS_MsgQFreeAll
                0x00001860       0x78 ./uCOS-III/Source/os_msg.o
                0x00001860                OS_MsgQFreeAll
 .text.OS_MsgQInit
                0x000018d8       0x34 ./uCOS-III/Source/os_msg.o
                0x000018d8                OS_MsgQInit
 .text.OSMutexCreate
                0x0000190c       0x6c ./uCOS-III/Source/os_mutex.o
                0x0000190c                OSMutexCreate
 .text.OSMutexPend
                0x00001978      0x1ac ./uCOS-III/Source/os_mutex.o
                0x00001978                OSMutexPend
 .text.OSMutexPost
                0x00001b24      0x154 ./uCOS-III/Source/os_mutex.o
                0x00001b24                OSMutexPost
 .text.OS_MutexDbgListAdd
                0x00001c78       0x4c ./uCOS-III/Source/os_mutex.o
                0x00001c78                OS_MutexDbgListAdd
 .text.OS_MutexInit
                0x00001cc4       0x2c ./uCOS-III/Source/os_mutex.o
                0x00001cc4                OS_MutexInit
 .text.OS_MutexGrpAdd
                0x00001cf0       0x24 ./uCOS-III/Source/os_mutex.o
                0x00001cf0                OS_MutexGrpAdd
 .text.OS_MutexGrpRemove
                0x00001d14       0x38 ./uCOS-III/Source/os_mutex.o
                0x00001d14                OS_MutexGrpRemove
 .text.OS_MutexGrpPrioFindHighest
                0x00001d4c       0x58 ./uCOS-III/Source/os_mutex.o
                0x00001d4c                OS_MutexGrpPrioFindHighest
 .text.OS_MutexGrpPostAll
                0x00001da4       0x84 ./uCOS-III/Source/os_mutex.o
                0x00001da4                OS_MutexGrpPostAll
 .text.OS_PrioInit
                0x00001e28       0x30 ./uCOS-III/Source/os_prio.o
                0x00001e28                OS_PrioInit
 .text.OS_PrioGetHighest
                0x00001e58       0x48 ./uCOS-III/Source/os_prio.o
                0x00001e58                OS_PrioGetHighest
 .text.OS_PrioInsert
                0x00001ea0       0x4c ./uCOS-III/Source/os_prio.o
                0x00001ea0                OS_PrioInsert
 .text.OS_PrioRemove
                0x00001eec       0x50 ./uCOS-III/Source/os_prio.o
                0x00001eec                OS_PrioRemove
 .text.OS_QInit
                0x00001f3c       0x2c ./uCOS-III/Source/os_q.o
                0x00001f3c                OS_QInit
 .text.OSSemCreate
                0x00001f68       0x60 ./uCOS-III/Source/os_sem.o
                0x00001f68                OSSemCreate
 .text.OSSemPend
                0x00001fc8      0x158 ./uCOS-III/Source/os_sem.o
                0x00001fc8                OSSemPend
 .text.OSSemPost
                0x00002120       0x2c ./uCOS-III/Source/os_sem.o
                0x00002120                OSSemPost
 .text.OS_SemDbgListAdd
                0x0000214c       0x4c ./uCOS-III/Source/os_sem.o
                0x0000214c                OS_SemDbgListAdd
 .text.OS_SemInit
                0x00002198       0x2c ./uCOS-III/Source/os_sem.o
                0x00002198                OS_SemInit
 .text.OS_SemPost
                0x000021c4       0xd4 ./uCOS-III/Source/os_sem.o
                0x000021c4                OS_SemPost
 .text.OSStatReset
                0x00002298      0x100 ./uCOS-III/Source/os_stat.o
                0x00002298                OSStatReset
 .text.OS_StatTask
                0x00002398      0x2f4 ./uCOS-III/Source/os_stat.o
                0x00002398                OS_StatTask
 .text.OS_StatTaskInit
                0x0000268c       0xd4 ./uCOS-III/Source/os_stat.o
                0x0000268c                OS_StatTaskInit
 .text.OSTaskCreate
                0x00002760      0x184 ./uCOS-III/Source/os_task.o
                0x00002760                OSTaskCreate
 .text.OSTaskDel
                0x000028e4      0x1b4 ./uCOS-III/Source/os_task.o
                0x000028e4                OSTaskDel
 .text.OSTaskSemPend
                0x00002a98      0x190 ./uCOS-III/Source/os_task.o
                0x00002a98                OSTaskSemPend
 .text.OSTaskSemPost
                0x00002c28       0x2c ./uCOS-III/Source/os_task.o
                0x00002c28                OSTaskSemPost
 .text.OSTaskStkChk
                0x00002c54       0xb0 ./uCOS-III/Source/os_task.o
                0x00002c54                OSTaskStkChk
 .text.OS_TaskDbgListAdd
                0x00002d04       0x4c ./uCOS-III/Source/os_task.o
                0x00002d04                OS_TaskDbgListAdd
 .text.OS_TaskDbgListRemove
                0x00002d50       0x84 ./uCOS-III/Source/os_task.o
                0x00002d50                OS_TaskDbgListRemove
 .text.OS_TaskInit
                0x00002dd4       0x38 ./uCOS-III/Source/os_task.o
                0x00002dd4                OS_TaskInit
 .text.OS_TaskInitTCB
                0x00002e0c      0x19c ./uCOS-III/Source/os_task.o
                0x00002e0c                OS_TaskInitTCB
 .text.OS_TaskReturn
                0x00002fa8       0x24 ./uCOS-III/Source/os_task.o
                0x00002fa8                OS_TaskReturn
 .text.OS_TaskSemPost
                0x00002fcc      0x114 ./uCOS-III/Source/os_task.o
                0x00002fcc                OS_TaskSemPost
 .text.OS_TaskChangePrio
                0x000030e0      0x144 ./uCOS-III/Source/os_task.o
                0x000030e0                OS_TaskChangePrio
 .text.OS_TickTask
                0x00003224       0x60 ./uCOS-III/Source/os_tick.o
                0x00003224                OS_TickTask
 .text.OS_TickTaskInit
                0x00003284       0xd8 ./uCOS-III/Source/os_tick.o
                0x00003284                OS_TickTaskInit
 .text.OS_TickListInsert
                0x0000335c      0x130 ./uCOS-III/Source/os_tick.o
                0x0000335c                OS_TickListInsert
 .text.OS_TickListInsertDly
                0x0000348c      0x108 ./uCOS-III/Source/os_tick.o
                0x0000348c                OS_TickListInsertDly
 .text.OS_TickListRemove
                0x00003594       0xc8 ./uCOS-III/Source/os_tick.o
                0x00003594                OS_TickListRemove
 .text.OS_TickListResetPeak
                0x0000365c        0xc ./uCOS-III/Source/os_tick.o
                0x0000365c                OS_TickListResetPeak
 .text.OS_TickListUpdateDly
                0x00003668       0xb4 ./uCOS-III/Source/os_tick.o
 .text.OS_TickListUpdateTimeout
                0x0000371c      0x150 ./uCOS-III/Source/os_tick.o
 .text.OSTimeDly
                0x0000386c       0xb8 ./uCOS-III/Source/os_time.o
                0x0000386c                OSTimeDly
 .text.OSTimeDlyHMSM
                0x00003924      0x138 ./uCOS-III/Source/os_time.o
                0x00003924                OSTimeDlyHMSM
 .text.OSTimeTick
                0x00003a5c       0x74 ./uCOS-III/Source/os_time.o
                0x00003a5c                OSTimeTick
 .text.OS_TmrInit
                0x00003ad0      0x134 ./uCOS-III/Source/os_tmr.o
                0x00003ad0                OS_TmrInit
 .text.OS_TmrResetPeak
                0x00003c04        0xc ./uCOS-III/Source/os_tmr.o
                0x00003c04                OS_TmrResetPeak
 .text.OS_TmrUnlink
                0x00003c10       0x7c ./uCOS-III/Source/os_tmr.o
                0x00003c10                OS_TmrUnlink
 .text.OS_TmrTask
                0x00003c8c       0xcc ./uCOS-III/Source/os_tmr.o
                0x00003c8c                OS_TmrTask
 .text.OS_TmrLock
                0x00003d58       0x20 ./uCOS-III/Source/os_tmr.o
 .text.OS_TmrUnlock
                0x00003d78       0x1c ./uCOS-III/Source/os_tmr.o
 .text.OSIdleTaskHook
                0x00003d94       0x18 ./uCOS-III/Ports/ARM-Cortex-M4/Generic/GNU/os_cpu_c.o
                0x00003d94                OSIdleTaskHook
 .text.OSInitHook
                0x00003dac       0x38 ./uCOS-III/Ports/ARM-Cortex-M4/Generic/GNU/os_cpu_c.o
                0x00003dac                OSInitHook
 .text.OSStatTaskHook
                0x00003de4       0x18 ./uCOS-III/Ports/ARM-Cortex-M4/Generic/GNU/os_cpu_c.o
                0x00003de4                OSStatTaskHook
 .text.OSTaskCreateHook
                0x00003dfc       0x24 ./uCOS-III/Ports/ARM-Cortex-M4/Generic/GNU/os_cpu_c.o
                0x00003dfc                OSTaskCreateHook
 .text.OSTaskDelHook
                0x00003e20       0x24 ./uCOS-III/Ports/ARM-Cortex-M4/Generic/GNU/os_cpu_c.o
                0x00003e20                OSTaskDelHook
 .text.OSTaskReturnHook
                0x00003e44       0x24 ./uCOS-III/Ports/ARM-Cortex-M4/Generic/GNU/os_cpu_c.o
                0x00003e44                OSTaskReturnHook
 .text.OSTaskStkInit
                0x00003e68      0x34c ./uCOS-III/Ports/ARM-Cortex-M4/Generic/GNU/os_cpu_c.o
                0x00003e68                OSTaskStkInit
 .text.OSTaskSwHook
                0x000041b4       0xa8 ./uCOS-III/Ports/ARM-Cortex-M4/Generic/GNU/os_cpu_c.o
                0x000041b4                OSTaskSwHook
 .text.OSTimeTickHook
                0x0000425c       0x18 ./uCOS-III/Ports/ARM-Cortex-M4/Generic/GNU/os_cpu_c.o
                0x0000425c                OSTimeTickHook
 .text.SysTick_Handler
                0x00004274       0x1c ./uCOS-III/Ports/ARM-Cortex-M4/Generic/GNU/os_cpu_c.o
                0x00004274                SysTick_Handler
 .text.OS_CPU_SysTickInit
                0x00004290       0x54 ./uCOS-III/Ports/ARM-Cortex-M4/Generic/GNU/os_cpu_c.o
                0x00004290                OS_CPU_SysTickInit
 .text.Mem_Clr  0x000042e4       0x1c ./uC-LIB/lib_mem.o
                0x000042e4                Mem_Clr
 .text.Mem_Set  0x00004300       0xb4 ./uC-LIB/lib_mem.o
                0x00004300                Mem_Set
 .text.Str_Len_N
                0x000043b4       0x44 ./uC-LIB/lib_str.o
                0x000043b4                Str_Len_N
 .text.Str_Copy_N
                0x000043f8       0x90 ./uC-LIB/lib_str.o
                0x000043f8                Str_Copy_N
 .text.CPU_Init
                0x00004488       0x10 ./uC-CPU/cpu_core.o
                0x00004488                CPU_Init
 .text.CPU_SW_Exception
                0x00004498        0x8 ./uC-CPU/cpu_core.o
                0x00004498                CPU_SW_Exception
 .text.CPU_NameClr
                0x000044a0       0x1c ./uC-CPU/cpu_core.o
                0x000044a0                CPU_NameClr
 .text.CPU_NameSet
                0x000044bc       0x60 ./uC-CPU/cpu_core.o
                0x000044bc                CPU_NameSet
 .text.CPU_TS_TmrFreqSet
                0x0000451c       0x1c ./uC-CPU/cpu_core.o
                0x0000451c                CPU_TS_TmrFreqSet
 .text.CPU_NameInit
                0x00004538        0xc ./uC-CPU/cpu_core.o
 .text.CPU_TS_Init
                0x00004544       0x3c ./uC-CPU/cpu_core.o
 .text.INT_SYS_InstallHandler
                0x00004580       0x60 ./KSDK/platform/system/interrupt/src/fsl_interrupt_manager.o
                0x00004580                INT_SYS_InstallHandler
 .text.INT_SYS_EnableIRQGlobal
                0x000045e0       0x30 ./KSDK/platform/system/interrupt/src/fsl_interrupt_manager.o
                0x000045e0                INT_SYS_EnableIRQGlobal
 .text.INT_SYS_DisableIRQGlobal
                0x00004610       0x1c ./KSDK/platform/system/interrupt/src/fsl_interrupt_manager.o
                0x00004610                INT_SYS_DisableIRQGlobal
 .text.SystemInit
                0x0000462c      0x1f4 ./KSDK/platform/startup/MK64F12/system_MK64F12.o
                0x0000462c                SystemInit
 .text.OSA_Init
                0x00004820       0x48 ./KSDK/platform/osa/src/fsl_os_abstraction_ucosiii.o
                0x00004820                OSA_Init
 .text.OSA_Start
                0x00004868       0x24 ./KSDK/platform/osa/src/fsl_os_abstraction_ucosiii.o
                0x00004868                OSA_Start
 .text.SIM_HAL_EnablePortClock
                0x0000488c       0x8c ./KSDK/platform/hal/sim/MK64F12/fsl_sim_hal_K64F12.o
                0x0000488c                SIM_HAL_EnablePortClock
 .text.GPIO_HAL_SetPinDir
                0x00004918       0x68 ./KSDK/platform/hal/gpio/fsl_gpio_hal.o
                0x00004918                GPIO_HAL_SetPinDir
 .text.GPIO_HAL_WritePinOutput
                0x00004980       0x54 ./KSDK/platform/hal/gpio/fsl_gpio_hal.o
                0x00004980                GPIO_HAL_WritePinOutput
 .text.NVIC_EnableIRQ
                0x000049d4       0x30 ./KSDK/platform/drivers/gpio/src/fsl_gpio_driver.o
 .text.PORT_HAL_SetPullMode
                0x00004a04       0x44 ./KSDK/platform/drivers/gpio/src/fsl_gpio_driver.o
 .text.PORT_HAL_SetPullCmd
                0x00004a48       0x48 ./KSDK/platform/drivers/gpio/src/fsl_gpio_driver.o
 .text.PORT_HAL_SetSlewRateMode
                0x00004a90       0x48 ./KSDK/platform/drivers/gpio/src/fsl_gpio_driver.o
 .text.PORT_HAL_SetPassiveFilterCmd
                0x00004ad8       0x48 ./KSDK/platform/drivers/gpio/src/fsl_gpio_driver.o
 .text.PORT_HAL_SetOpenDrainCmd
                0x00004b20       0x48 ./KSDK/platform/drivers/gpio/src/fsl_gpio_driver.o
 .text.PORT_HAL_SetDriveStrengthMode
                0x00004b68       0x48 ./KSDK/platform/drivers/gpio/src/fsl_gpio_driver.o
 .text.PORT_HAL_SetDigitalFilterCmd
                0x00004bb0       0x4c ./KSDK/platform/drivers/gpio/src/fsl_gpio_driver.o
 .text.PORT_HAL_SetPinIntMode
                0x00004bfc       0x58 ./KSDK/platform/drivers/gpio/src/fsl_gpio_driver.o
 .text.GPIO_HAL_TogglePinOutput
                0x00004c54       0x3c ./KSDK/platform/drivers/gpio/src/fsl_gpio_driver.o
 .text.CLOCK_SYS_EnablePortClock
                0x00004c90       0x20 ./KSDK/platform/drivers/gpio/src/fsl_gpio_driver.o
 .text.INT_SYS_EnableIRQ
                0x00004cb0       0x54 ./KSDK/platform/drivers/gpio/src/fsl_gpio_driver.o
 .text.GPIO_DRV_Init
                0x00004d04       0x50 ./KSDK/platform/drivers/gpio/src/fsl_gpio_driver.o
                0x00004d04                GPIO_DRV_Init
 .text.GPIO_DRV_InputPinInit
                0x00004d54       0xbc ./KSDK/platform/drivers/gpio/src/fsl_gpio_driver.o
                0x00004d54                GPIO_DRV_InputPinInit
 .text.GPIO_DRV_OutputPinInit
                0x00004e10       0x84 ./KSDK/platform/drivers/gpio/src/fsl_gpio_driver.o
                0x00004e10                GPIO_DRV_OutputPinInit
 .text.GPIO_DRV_WritePinOutput
                0x00004e94       0x34 ./KSDK/platform/drivers/gpio/src/fsl_gpio_driver.o
                0x00004e94                GPIO_DRV_WritePinOutput
 .text.GPIO_DRV_TogglePinOutput
                0x00004ec8       0x30 ./KSDK/platform/drivers/gpio/src/fsl_gpio_driver.o
                0x00004ec8                GPIO_DRV_TogglePinOutput
 .text.CLOCK_SYS_EnablePortClock
                0x00004ef8       0x20 ./KSDK/boards/frdmk64f120m/hardware_init.o
 .text.hardware_init
                0x00004f18       0x70 ./KSDK/boards/frdmk64f120m/hardware_init.o
                0x00004f18                hardware_init
 .text.PORT_HAL_SetPullMode
                0x00004f88       0x44 ./KSDK/boards/frdmk64f120m/pin_mux.o
 .text.PORT_HAL_SetPullCmd
                0x00004fcc       0x48 ./KSDK/boards/frdmk64f120m/pin_mux.o
 .text.PORT_HAL_SetSlewRateMode
                0x00005014       0x48 ./KSDK/boards/frdmk64f120m/pin_mux.o
 .text.PORT_HAL_SetPassiveFilterCmd
                0x0000505c       0x48 ./KSDK/boards/frdmk64f120m/pin_mux.o
 .text.PORT_HAL_SetOpenDrainCmd
                0x000050a4       0x48 ./KSDK/boards/frdmk64f120m/pin_mux.o
 .text.PORT_HAL_SetDriveStrengthMode
                0x000050ec       0x48 ./KSDK/boards/frdmk64f120m/pin_mux.o
 .text.PORT_HAL_SetMuxMode
                0x00005134       0x54 ./KSDK/boards/frdmk64f120m/pin_mux.o
 .text.configure_adc_pins
                0x00005188       0x1c ./KSDK/boards/frdmk64f120m/pin_mux.o
                0x00005188                configure_adc_pins
 .text.configure_enet_pins
                0x000051a4       0xc4 ./KSDK/boards/frdmk64f120m/pin_mux.o
                0x000051a4                configure_enet_pins
 .text.configure_gpio_pins
                0x00005268      0x184 ./KSDK/boards/frdmk64f120m/pin_mux.o
                0x00005268                configure_gpio_pins
 .text.configure_i2c_pins
                0x000053ec       0x78 ./KSDK/boards/frdmk64f120m/pin_mux.o
                0x000053ec                configure_i2c_pins
 .text.configure_sdhc_pins
                0x00005464      0x104 ./KSDK/boards/frdmk64f120m/pin_mux.o
                0x00005464                configure_sdhc_pins
 .text.configure_spi_pins
                0x00005568       0x74 ./KSDK/boards/frdmk64f120m/pin_mux.o
                0x00005568                configure_spi_pins
 .text.configure_uart_pins
                0x000055dc       0x50 ./KSDK/boards/frdmk64f120m/pin_mux.o
                0x000055dc                configure_uart_pins
 .text.configure_ftm_pins
                0x0000562c       0x30 ./KSDK/boards/frdmk64f120m/pin_mux.o
                0x0000562c                configure_ftm_pins
 .text.init_data_bss
                0x0000565c       0xb8 ./BSP/KSDK/startup.o
                0x0000565c                init_data_bss
 .text.CPU_TS_TmrInit
                0x00005714       0x48 ./BSP/cpu_bsp.o
                0x00005714                CPU_TS_TmrInit
 .text.CPU_TS_TmrRd
                0x0000575c       0x20 ./BSP/cpu_bsp.o
                0x0000575c                CPU_TS_TmrRd
 .text.NVIC_EnableIRQ
                0x0000577c       0x30 ./APP/app.o
 .text.INT_SYS_EnableIRQ
                0x000057ac       0x54 ./APP/app.o
 .text.main     0x00005800       0x8c ./APP/app.o
                0x00005800                main
 .text.startTask
                0x0000588c       0xb4 ./APP/app.o
 .text.setupADC0
                0x00005940       0x44 ./APP/app.o
 .text.readADC0
                0x00005984       0x18 ./APP/app.o
 .text.ADCTask  0x0000599c       0x20 ./APP/app.o
 .text.ADC_InterruptHandler
                0x000059bc       0x40 ./APP/app.o
                0x000059bc                ADC_InterruptHandler
 .text.LEDTask  0x000059fc      0x1f4 ./APP/app.o
 .text.__assert_func
                0x00005bf0       0x38 c:/freescale/kds_v3/toolchain/bin/../lib/gcc/arm-none-eabi/4.8.4/../../../../arm-none-eabi/lib/armv7e-m/fpu\libg_s.a(lib_a-assert.o)
                0x00005bf0                __assert_func
 .text.exit     0x00005c28       0x28 c:/freescale/kds_v3/toolchain/bin/../lib/gcc/arm-none-eabi/4.8.4/../../../../arm-none-eabi/lib/armv7e-m/fpu\libg_s.a(lib_a-exit.o)
                0x00005c28                exit
 .text.fprintf  0x00005c50       0x24 c:/freescale/kds_v3/toolchain/bin/../lib/gcc/arm-none-eabi/4.8.4/../../../../arm-none-eabi/lib/armv7e-m/fpu\libg_s.a(lib_a-fprintf.o)
                0x00005c50                fiprintf
                0x00005c50                fprintf
 .text.__libc_init_array
                0x00005c74       0x4c c:/freescale/kds_v3/toolchain/bin/../lib/gcc/arm-none-eabi/4.8.4/../../../../arm-none-eabi/lib/armv7e-m/fpu\libg_s.a(lib_a-init.o)
                0x00005c74                __libc_init_array
 .text.memset   0x00005cc0       0x10 c:/freescale/kds_v3/toolchain/bin/../lib/gcc/arm-none-eabi/4.8.4/../../../../arm-none-eabi/lib/armv7e-m/fpu\libg_s.a(lib_a-memset.o)
                0x00005cc0                memset
 .text._free_r  0x00005cd0       0x88 c:/freescale/kds_v3/toolchain/bin/../lib/gcc/arm-none-eabi/4.8.4/../../../../arm-none-eabi/lib/armv7e-m/fpu\libg_s.a(lib_a-nano-freer.o)
                0x00005cd0                _free_r
 .text._malloc_r
                0x00005d58       0xa8 c:/freescale/kds_v3/toolchain/bin/../lib/gcc/arm-none-eabi/4.8.4/../../../../arm-none-eabi/lib/armv7e-m/fpu\libg_s.a(lib_a-nano-mallocr.o)
                0x00005d58                _malloc_r
 .text._sbrk_r  0x00005e00       0x20 c:/freescale/kds_v3/toolchain/bin/../lib/gcc/arm-none-eabi/4.8.4/../../../../arm-none-eabi/lib/armv7e-m/fpu\libg_s.a(lib_a-sbrkr.o)
                0x00005e00                _sbrk_r
 .text.__sfputc_r
                0x00005e20       0x2c c:/freescale/kds_v3/toolchain/bin/../lib/gcc/arm-none-eabi/4.8.4/../../../../arm-none-eabi/lib/armv7e-m/fpu\libg_s.a(lib_a-vfprintf.o)
 .text.__sfputs_r
                0x00005e4c       0x24 c:/freescale/kds_v3/toolchain/bin/../lib/gcc/arm-none-eabi/4.8.4/../../../../arm-none-eabi/lib/armv7e-m/fpu\libg_s.a(lib_a-vfprintf.o)
                0x00005e4c                __sfputs_r
 .text._vfprintf_r
                0x00005e70      0x208 c:/freescale/kds_v3/toolchain/bin/../lib/gcc/arm-none-eabi/4.8.4/../../../../arm-none-eabi/lib/armv7e-m/fpu\libg_s.a(lib_a-vfprintf.o)
                0x00005e70                _vfprintf_r
                0x00005e70                _vfiprintf_r
 .text._printf_common
                0x00006078       0xe4 c:/freescale/kds_v3/toolchain/bin/../lib/gcc/arm-none-eabi/4.8.4/../../../../arm-none-eabi/lib/armv7e-m/fpu\libg_s.a(lib_a-vfprintf_i.o)
                0x00006078                _printf_common
 .text._printf_i
                0x0000615c      0x228 c:/freescale/kds_v3/toolchain/bin/../lib/gcc/arm-none-eabi/4.8.4/../../../../arm-none-eabi/lib/armv7e-m/fpu\libg_s.a(lib_a-vfprintf_i.o)
                0x0000615c                _printf_i
 .text.__swbuf_r
                0x00006384       0xa8 c:/freescale/kds_v3/toolchain/bin/../lib/gcc/arm-none-eabi/4.8.4/../../../../arm-none-eabi/lib/armv7e-m/fpu\libg_s.a(lib_a-wbuf.o)
                0x00006384                __swbuf_r
 .text.__swsetup_r
                0x0000642c       0xdc c:/freescale/kds_v3/toolchain/bin/../lib/gcc/arm-none-eabi/4.8.4/../../../../arm-none-eabi/lib/armv7e-m/fpu\libg_s.a(lib_a-wsetup.o)
                0x0000642c                __swsetup_r
 .text.abort    0x00006508        0xe c:/freescale/kds_v3/toolchain/bin/../lib/gcc/arm-none-eabi/4.8.4/../../../../arm-none-eabi/lib/armv7e-m/fpu\libg_s.a(lib_a-abort.o)
                0x00006508                abort
 .text.__sflush_r
                0x00006516      0x106 c:/freescale/kds_v3/toolchain/bin/../lib/gcc/arm-none-eabi/4.8.4/../../../../arm-none-eabi/lib/armv7e-m/fpu\libg_s.a(lib_a-fflush.o)
                0x00006516                __sflush_r
 .text._fflush_r
                0x0000661c       0x54 c:/freescale/kds_v3/toolchain/bin/../lib/gcc/arm-none-eabi/4.8.4/../../../../arm-none-eabi/lib/armv7e-m/fpu\libg_s.a(lib_a-fflush.o)
                0x0000661c                _fflush_r
 .text._cleanup_r
                0x00006670       0x32 c:/freescale/kds_v3/toolchain/bin/../lib/gcc/arm-none-eabi/4.8.4/../../../../arm-none-eabi/lib/armv7e-m/fpu\libg_s.a(lib_a-findfp.o)
                0x00006670                _cleanup_r
 *fill*         0x000066a2        0x2 
 .text.std.isra.0
                0x000066a4       0x48 c:/freescale/kds_v3/toolchain/bin/../lib/gcc/arm-none-eabi/4.8.4/../../../../arm-none-eabi/lib/armv7e-m/fpu\libg_s.a(lib_a-findfp.o)
 .text.__sfmoreglue
                0x000066ec       0x2c c:/freescale/kds_v3/toolchain/bin/../lib/gcc/arm-none-eabi/4.8.4/../../../../arm-none-eabi/lib/armv7e-m/fpu\libg_s.a(lib_a-findfp.o)
                0x000066ec                __sfmoreglue
 .text.__sinit  0x00006718       0x60 c:/freescale/kds_v3/toolchain/bin/../lib/gcc/arm-none-eabi/4.8.4/../../../../arm-none-eabi/lib/armv7e-m/fpu\libg_s.a(lib_a-findfp.o)
                0x00006718                __sinit
 .text.__sfp    0x00006778       0x74 c:/freescale/kds_v3/toolchain/bin/../lib/gcc/arm-none-eabi/4.8.4/../../../../arm-none-eabi/lib/armv7e-m/fpu\libg_s.a(lib_a-findfp.o)
                0x00006778                __sfp
 .text.__smakebuf_r
                0x000067ec       0x9c c:/freescale/kds_v3/toolchain/bin/../lib/gcc/arm-none-eabi/4.8.4/../../../../arm-none-eabi/lib/armv7e-m/fpu\libg_s.a(lib_a-makebuf.o)
                0x000067ec                __smakebuf_r
 .text.memchr   0x00006888       0x1e c:/freescale/kds_v3/toolchain/bin/../lib/gcc/arm-none-eabi/4.8.4/../../../../arm-none-eabi/lib/armv7e-m/fpu\libg_s.a(lib_a-memchr-stub.o)
                0x00006888                memchr
 .text._raise_r
                0x000068a6       0x50 c:/freescale/kds_v3/toolchain/bin/../lib/gcc/arm-none-eabi/4.8.4/../../../../arm-none-eabi/lib/armv7e-m/fpu\libg_s.a(lib_a-signal.o)
                0x000068a6                _raise_r
 *fill*         0x000068f6        0x2 
 .text.raise    0x000068f8       0x10 c:/freescale/kds_v3/toolchain/bin/../lib/gcc/arm-none-eabi/4.8.4/../../../../arm-none-eabi/lib/armv7e-m/fpu\libg_s.a(lib_a-signal.o)
                0x000068f8                raise
 .text._kill_r  0x00006908       0x24 c:/freescale/kds_v3/toolchain/bin/../lib/gcc/arm-none-eabi/4.8.4/../../../../arm-none-eabi/lib/armv7e-m/fpu\libg_s.a(lib_a-signalr.o)
                0x00006908                _kill_r
 .text._getpid_r
                0x0000692c        0x4 c:/freescale/kds_v3/toolchain/bin/../lib/gcc/arm-none-eabi/4.8.4/../../../../arm-none-eabi/lib/armv7e-m/fpu\libg_s.a(lib_a-signalr.o)
                0x0000692c                _getpid_r
 .text.__sread  0x00006930       0x22 c:/freescale/kds_v3/toolchain/bin/../lib/gcc/arm-none-eabi/4.8.4/../../../../arm-none-eabi/lib/armv7e-m/fpu\libg_s.a(lib_a-stdio.o)
                0x00006930                __sread
 .text.__swrite
                0x00006952       0x38 c:/freescale/kds_v3/toolchain/bin/../lib/gcc/arm-none-eabi/4.8.4/../../../../arm-none-eabi/lib/armv7e-m/fpu\libg_s.a(lib_a-stdio.o)
                0x00006952                __swrite
 .text.__sseek  0x0000698a       0x24 c:/freescale/kds_v3/toolchain/bin/../lib/gcc/arm-none-eabi/4.8.4/../../../../arm-none-eabi/lib/armv7e-m/fpu\libg_s.a(lib_a-stdio.o)
                0x0000698a                __sseek
 .text.__sclose
                0x000069ae        0x8 c:/freescale/kds_v3/toolchain/bin/../lib/gcc/arm-none-eabi/4.8.4/../../../../arm-none-eabi/lib/armv7e-m/fpu\libg_s.a(lib_a-stdio.o)
                0x000069ae                __sclose
 .text.strlen   0x000069b6       0x10 c:/freescale/kds_v3/toolchain/bin/../lib/gcc/arm-none-eabi/4.8.4/../../../../arm-none-eabi/lib/armv7e-m/fpu\libg_s.a(lib_a-strlen.o)
                0x000069b6                strlen
 *fill*         0x000069c6        0x2 
 .text._write_r
                0x000069c8       0x24 c:/freescale/kds_v3/toolchain/bin/../lib/gcc/arm-none-eabi/4.8.4/../../../../arm-none-eabi/lib/armv7e-m/fpu\libg_s.a(lib_a-writer.o)
                0x000069c8                _write_r
 .text._close_r
                0x000069ec       0x20 c:/freescale/kds_v3/toolchain/bin/../lib/gcc/arm-none-eabi/4.8.4/../../../../arm-none-eabi/lib/armv7e-m/fpu\libg_s.a(lib_a-closer.o)
                0x000069ec                _close_r
 .text._fstat_r
                0x00006a0c       0x24 c:/freescale/kds_v3/toolchain/bin/../lib/gcc/arm-none-eabi/4.8.4/../../../../arm-none-eabi/lib/armv7e-m/fpu\libg_s.a(lib_a-fstatr.o)
                0x00006a0c                _fstat_r
 .text._isatty_r
                0x00006a30       0x20 c:/freescale/kds_v3/toolchain/bin/../lib/gcc/arm-none-eabi/4.8.4/../../../../arm-none-eabi/lib/armv7e-m/fpu\libg_s.a(lib_a-isattyr.o)
                0x00006a30                _isatty_r
 .text._lseek_r
                0x00006a50       0x24 c:/freescale/kds_v3/toolchain/bin/../lib/gcc/arm-none-eabi/4.8.4/../../../../arm-none-eabi/lib/armv7e-m/fpu\libg_s.a(lib_a-lseekr.o)
                0x00006a50                _lseek_r
 .text._read_r  0x00006a74       0x24 c:/freescale/kds_v3/toolchain/bin/../lib/gcc/arm-none-eabi/4.8.4/../../../../arm-none-eabi/lib/armv7e-m/fpu\libg_s.a(lib_a-readr.o)
                0x00006a74                _read_r
 .text._close   0x00006a98       0x10 c:/freescale/kds_v3/toolchain/bin/../lib/gcc/arm-none-eabi/4.8.4/../../../../arm-none-eabi/lib/armv7e-m/fpu\libnosys.a(close.o)
                0x00006a98                _close
 .text._fstat   0x00006aa8       0x10 c:/freescale/kds_v3/toolchain/bin/../lib/gcc/arm-none-eabi/4.8.4/../../../../arm-none-eabi/lib/armv7e-m/fpu\libnosys.a(fstat.o)
                0x00006aa8                _fstat
 .text._getpid  0x00006ab8       0x10 c:/freescale/kds_v3/toolchain/bin/../lib/gcc/arm-none-eabi/4.8.4/../../../../arm-none-eabi/lib/armv7e-m/fpu\libnosys.a(getpid.o)
                0x00006ab8                _getpid
 .text._isatty  0x00006ac8       0x10 c:/freescale/kds_v3/toolchain/bin/../lib/gcc/arm-none-eabi/4.8.4/../../../../arm-none-eabi/lib/armv7e-m/fpu\libnosys.a(isatty.o)
                0x00006ac8                _isatty
 .text._kill    0x00006ad8       0x10 c:/freescale/kds_v3/toolchain/bin/../lib/gcc/arm-none-eabi/4.8.4/../../../../arm-none-eabi/lib/armv7e-m/fpu\libnosys.a(kill.o)
                0x00006ad8                _kill
 .text._lseek   0x00006ae8       0x10 c:/freescale/kds_v3/toolchain/bin/../lib/gcc/arm-none-eabi/4.8.4/../../../../arm-none-eabi/lib/armv7e-m/fpu\libnosys.a(lseek.o)
                0x00006ae8                _lseek
 .text._read    0x00006af8       0x10 c:/freescale/kds_v3/toolchain/bin/../lib/gcc/arm-none-eabi/4.8.4/../../../../arm-none-eabi/lib/armv7e-m/fpu\libnosys.a(read.o)
                0x00006af8                _read
 .text._sbrk    0x00006b08       0x34 c:/freescale/kds_v3/toolchain/bin/../lib/gcc/arm-none-eabi/4.8.4/../../../../arm-none-eabi/lib/armv7e-m/fpu\libnosys.a(sbrk.o)
                0x00006b08                _sbrk
 .text._write   0x00006b3c       0x10 c:/freescale/kds_v3/toolchain/bin/../lib/gcc/arm-none-eabi/4.8.4/../../../../arm-none-eabi/lib/armv7e-m/fpu\libnosys.a(write.o)
                0x00006b3c                _write
 .text._exit    0x00006b4c        0x4 c:/freescale/kds_v3/toolchain/bin/../lib/gcc/arm-none-eabi/4.8.4/../../../../arm-none-eabi/lib/armv7e-m/fpu\libnosys.a(_exit.o)
                0x00006b4c                _exit
 *(.rodata)
 .rodata        0x00006b50       0x2c ./uCOS-III/Source/os_core.o
 .rodata        0x00006b7c        0xc ./uCOS-III/Source/os_mutex.o
 .rodata        0x00006b88        0xc ./uCOS-III/Source/os_sem.o
 .rodata        0x00006b94       0x14 ./uCOS-III/Source/os_stat.o
 .rodata        0x00006ba8        0xc ./uCOS-III/Source/os_task.o
 .rodata        0x00006bb4       0x14 ./uCOS-III/Source/os_tick.o
 .rodata        0x00006bc8       0x30 ./uCOS-III/Source/os_tmr.o
 .rodata        0x00006bf8       0xbc ./KSDK/platform/system/interrupt/src/fsl_interrupt_manager.o
 .rodata        0x00006cb4       0x5c ./KSDK/platform/hal/gpio/fsl_gpio_hal.o
 .rodata        0x00006d10      0x154 ./KSDK/platform/drivers/gpio/src/fsl_gpio_driver.o
 .rodata        0x00006e64       0x5c ./KSDK/boards/frdmk64f120m/pin_mux.o
 .rodata        0x00006ec0       0xd8 ./APP/app.o
 *(.rodata*)
 .rodata.OSCfg_IdleTaskStkBasePtr
                0x00006f98        0x4 ./uCOS-III/Source/os_cfg_app.o
                0x00006f98                OSCfg_IdleTaskStkBasePtr
 .rodata.OSCfg_IdleTaskStkLimit
                0x00006f9c        0x4 ./uCOS-III/Source/os_cfg_app.o
                0x00006f9c                OSCfg_IdleTaskStkLimit
 .rodata.OSCfg_IdleTaskStkSize
                0x00006fa0        0x4 ./uCOS-III/Source/os_cfg_app.o
                0x00006fa0                OSCfg_IdleTaskStkSize
 .rodata.OSCfg_ISRStkBasePtr
                0x00006fa4        0x4 ./uCOS-III/Source/os_cfg_app.o
                0x00006fa4                OSCfg_ISRStkBasePtr
 .rodata.OSCfg_ISRStkSize
                0x00006fa8        0x4 ./uCOS-III/Source/os_cfg_app.o
                0x00006fa8                OSCfg_ISRStkSize
 .rodata.OSCfg_MsgPoolSize
                0x00006fac        0x2 ./uCOS-III/Source/os_cfg_app.o
                0x00006fac                OSCfg_MsgPoolSize
 *fill*         0x00006fae        0x2 
 .rodata.OSCfg_MsgPoolBasePtr
                0x00006fb0        0x4 ./uCOS-III/Source/os_cfg_app.o
                0x00006fb0                OSCfg_MsgPoolBasePtr
 .rodata.OSCfg_StatTaskPrio
                0x00006fb4        0x1 ./uCOS-III/Source/os_cfg_app.o
                0x00006fb4                OSCfg_StatTaskPrio
 *fill*         0x00006fb5        0x3 
 .rodata.OSCfg_StatTaskRate_Hz
                0x00006fb8        0x4 ./uCOS-III/Source/os_cfg_app.o
                0x00006fb8                OSCfg_StatTaskRate_Hz
 .rodata.OSCfg_StatTaskStkBasePtr
                0x00006fbc        0x4 ./uCOS-III/Source/os_cfg_app.o
                0x00006fbc                OSCfg_StatTaskStkBasePtr
 .rodata.OSCfg_StatTaskStkLimit
                0x00006fc0        0x4 ./uCOS-III/Source/os_cfg_app.o
                0x00006fc0                OSCfg_StatTaskStkLimit
 .rodata.OSCfg_StatTaskStkSize
                0x00006fc4        0x4 ./uCOS-III/Source/os_cfg_app.o
                0x00006fc4                OSCfg_StatTaskStkSize
 .rodata.OSCfg_StkSizeMin
                0x00006fc8        0x4 ./uCOS-III/Source/os_cfg_app.o
                0x00006fc8                OSCfg_StkSizeMin
 .rodata.OSCfg_TickRate_Hz
                0x00006fcc        0x4 ./uCOS-III/Source/os_cfg_app.o
                0x00006fcc                OSCfg_TickRate_Hz
 .rodata.OSCfg_TickTaskPrio
                0x00006fd0        0x1 ./uCOS-III/Source/os_cfg_app.o
                0x00006fd0                OSCfg_TickTaskPrio
 *fill*         0x00006fd1        0x3 
 .rodata.OSCfg_TickTaskStkBasePtr
                0x00006fd4        0x4 ./uCOS-III/Source/os_cfg_app.o
                0x00006fd4                OSCfg_TickTaskStkBasePtr
 .rodata.OSCfg_TickTaskStkLimit
                0x00006fd8        0x4 ./uCOS-III/Source/os_cfg_app.o
                0x00006fd8                OSCfg_TickTaskStkLimit
 .rodata.OSCfg_TickTaskStkSize
                0x00006fdc        0x4 ./uCOS-III/Source/os_cfg_app.o
                0x00006fdc                OSCfg_TickTaskStkSize
 .rodata.OSCfg_TmrTaskPrio
                0x00006fe0        0x1 ./uCOS-III/Source/os_cfg_app.o
                0x00006fe0                OSCfg_TmrTaskPrio
 *fill*         0x00006fe1        0x3 
 .rodata.OSCfg_TmrTaskRate_Hz
                0x00006fe4        0x4 ./uCOS-III/Source/os_cfg_app.o
                0x00006fe4                OSCfg_TmrTaskRate_Hz
 .rodata.OSCfg_TmrTaskStkBasePtr
                0x00006fe8        0x4 ./uCOS-III/Source/os_cfg_app.o
                0x00006fe8                OSCfg_TmrTaskStkBasePtr
 .rodata.OSCfg_TmrTaskStkLimit
                0x00006fec        0x4 ./uCOS-III/Source/os_cfg_app.o
                0x00006fec                OSCfg_TmrTaskStkLimit
 .rodata.OSCfg_TmrTaskStkSize
                0x00006ff0        0x4 ./uCOS-III/Source/os_cfg_app.o
                0x00006ff0                OSCfg_TmrTaskStkSize
 .rodata.OSDbg_DbgEn
                0x00006ff4        0x1 ./uCOS-III/Source/os_dbg.o
                0x00006ff4                OSDbg_DbgEn
 .rodata.OSDbg_ArgChkEn
                0x00006ff5        0x1 ./uCOS-III/Source/os_dbg.o
                0x00006ff5                OSDbg_ArgChkEn
 .rodata.OSDbg_AppHooksEn
                0x00006ff6        0x1 ./uCOS-III/Source/os_dbg.o
                0x00006ff6                OSDbg_AppHooksEn
 *fill*         0x00006ff7        0x1 
 .rodata.OSDbg_EndiannessTest
                0x00006ff8        0x4 ./uCOS-III/Source/os_dbg.o
                0x00006ff8                OSDbg_EndiannessTest
 .rodata.OSDbg_CalledFromISRChkEn
                0x00006ffc        0x1 ./uCOS-III/Source/os_dbg.o
                0x00006ffc                OSDbg_CalledFromISRChkEn
 .rodata.OSDbg_FlagEn
                0x00006ffd        0x1 ./uCOS-III/Source/os_dbg.o
                0x00006ffd                OSDbg_FlagEn
 *fill*         0x00006ffe        0x2 
 .rodata.OSDbg_FlagGrp
                0x00007000       0x28 ./uCOS-III/Source/os_dbg.o
                0x00007000                OSDbg_FlagGrp
 .rodata.OSDbg_FlagDelEn
                0x00007028        0x1 ./uCOS-III/Source/os_dbg.o
                0x00007028                OSDbg_FlagDelEn
 .rodata.OSDbg_FlagModeClrEn
                0x00007029        0x1 ./uCOS-III/Source/os_dbg.o
                0x00007029                OSDbg_FlagModeClrEn
 .rodata.OSDbg_FlagPendAbortEn
                0x0000702a        0x1 ./uCOS-III/Source/os_dbg.o
                0x0000702a                OSDbg_FlagPendAbortEn
 *fill*         0x0000702b        0x1 
 .rodata.OSDbg_FlagGrpSize
                0x0000702c        0x2 ./uCOS-III/Source/os_dbg.o
                0x0000702c                OSDbg_FlagGrpSize
 .rodata.OSDbg_FlagWidth
                0x0000702e        0x2 ./uCOS-III/Source/os_dbg.o
                0x0000702e                OSDbg_FlagWidth
 .rodata.OSDbg_ISRPostDeferredEn
                0x00007030        0x1 ./uCOS-III/Source/os_dbg.o
                0x00007030                OSDbg_ISRPostDeferredEn
 *fill*         0x00007031        0x3 
 .rodata.OSDbg_Mem
                0x00007034       0x20 ./uCOS-III/Source/os_dbg.o
                0x00007034                OSDbg_Mem
 .rodata.OSDbg_MemEn
                0x00007054        0x1 ./uCOS-III/Source/os_dbg.o
                0x00007054                OSDbg_MemEn
 *fill*         0x00007055        0x1 
 .rodata.OSDbg_MemSize
                0x00007056        0x2 ./uCOS-III/Source/os_dbg.o
                0x00007056                OSDbg_MemSize
 .rodata.OSDbg_MsgEn
                0x00007058        0x1 ./uCOS-III/Source/os_dbg.o
                0x00007058                OSDbg_MsgEn
 *fill*         0x00007059        0x1 
 .rodata.OSDbg_MsgSize
                0x0000705a        0x2 ./uCOS-III/Source/os_dbg.o
                0x0000705a                OSDbg_MsgSize
 .rodata.OSDbg_MsgPoolSize
                0x0000705c        0x2 ./uCOS-III/Source/os_dbg.o
                0x0000705c                OSDbg_MsgPoolSize
 .rodata.OSDbg_MsgQSize
                0x0000705e        0x2 ./uCOS-III/Source/os_dbg.o
                0x0000705e                OSDbg_MsgQSize
 .rodata.OSDbg_Mutex
                0x00007060       0x30 ./uCOS-III/Source/os_dbg.o
                0x00007060                OSDbg_Mutex
 .rodata.OSDbg_MutexEn
                0x00007090        0x1 ./uCOS-III/Source/os_dbg.o
                0x00007090                OSDbg_MutexEn
 .rodata.OSDbg_MutexDelEn
                0x00007091        0x1 ./uCOS-III/Source/os_dbg.o
                0x00007091                OSDbg_MutexDelEn
 .rodata.OSDbg_MutexPendAbortEn
                0x00007092        0x1 ./uCOS-III/Source/os_dbg.o
                0x00007092                OSDbg_MutexPendAbortEn
 *fill*         0x00007093        0x1 
 .rodata.OSDbg_MutexSize
                0x00007094        0x2 ./uCOS-III/Source/os_dbg.o
                0x00007094                OSDbg_MutexSize
 .rodata.OSDbg_ObjTypeChkEn
                0x00007096        0x1 ./uCOS-III/Source/os_dbg.o
                0x00007096                OSDbg_ObjTypeChkEn
 .rodata.OSDbg_PendMultiEn
                0x00007097        0x1 ./uCOS-III/Source/os_dbg.o
                0x00007097                OSDbg_PendMultiEn
 .rodata.OSDbg_PendDataSize
                0x00007098        0x2 ./uCOS-III/Source/os_dbg.o
                0x00007098                OSDbg_PendDataSize
 .rodata.OSDbg_PendListSize
                0x0000709a        0x2 ./uCOS-III/Source/os_dbg.o
                0x0000709a                OSDbg_PendListSize
 .rodata.OSDbg_PendObjSize
                0x0000709c        0x2 ./uCOS-III/Source/os_dbg.o
                0x0000709c                OSDbg_PendObjSize
 .rodata.OSDbg_PrioMax
                0x0000709e        0x2 ./uCOS-III/Source/os_dbg.o
                0x0000709e                OSDbg_PrioMax
 .rodata.OSDbg_PrioTblSize
                0x000070a0        0x2 ./uCOS-III/Source/os_dbg.o
                0x000070a0                OSDbg_PrioTblSize
 .rodata.OSDbg_PtrSize
                0x000070a2        0x2 ./uCOS-III/Source/os_dbg.o
                0x000070a2                OSDbg_PtrSize
 .rodata.OSDbg_Q
                0x000070a4       0x30 ./uCOS-III/Source/os_dbg.o
                0x000070a4                OSDbg_Q
 .rodata.OSDbg_QEn
                0x000070d4        0x1 ./uCOS-III/Source/os_dbg.o
                0x000070d4                OSDbg_QEn
 .rodata.OSDbg_QDelEn
                0x000070d5        0x1 ./uCOS-III/Source/os_dbg.o
                0x000070d5                OSDbg_QDelEn
 .rodata.OSDbg_QFlushEn
                0x000070d6        0x1 ./uCOS-III/Source/os_dbg.o
                0x000070d6                OSDbg_QFlushEn
 .rodata.OSDbg_QPendAbortEn
                0x000070d7        0x1 ./uCOS-III/Source/os_dbg.o
                0x000070d7                OSDbg_QPendAbortEn
 .rodata.OSDbg_QSize
                0x000070d8        0x2 ./uCOS-III/Source/os_dbg.o
                0x000070d8                OSDbg_QSize
 .rodata.OSDbg_SchedRoundRobinEn
                0x000070da        0x1 ./uCOS-III/Source/os_dbg.o
                0x000070da                OSDbg_SchedRoundRobinEn
 *fill*         0x000070db        0x1 
 .rodata.OSDbg_Sem
                0x000070dc       0x28 ./uCOS-III/Source/os_dbg.o
                0x000070dc                OSDbg_Sem
 .rodata.OSDbg_SemEn
                0x00007104        0x1 ./uCOS-III/Source/os_dbg.o
                0x00007104                OSDbg_SemEn
 .rodata.OSDbg_SemDelEn
                0x00007105        0x1 ./uCOS-III/Source/os_dbg.o
                0x00007105                OSDbg_SemDelEn
 .rodata.OSDbg_SemPendAbortEn
                0x00007106        0x1 ./uCOS-III/Source/os_dbg.o
                0x00007106                OSDbg_SemPendAbortEn
 .rodata.OSDbg_SemSetEn
                0x00007107        0x1 ./uCOS-III/Source/os_dbg.o
                0x00007107                OSDbg_SemSetEn
 .rodata.OSDbg_SemSize
                0x00007108        0x2 ./uCOS-III/Source/os_dbg.o
                0x00007108                OSDbg_SemSize
 .rodata.OSDbg_RdyList
                0x0000710a        0x2 ./uCOS-III/Source/os_dbg.o
                0x0000710a                OSDbg_RdyList
 .rodata.OSDbg_RdyListSize
                0x0000710c        0x4 ./uCOS-III/Source/os_dbg.o
                0x0000710c                OSDbg_RdyListSize
 .rodata.OSDbg_StkWidth
                0x00007110        0x1 ./uCOS-III/Source/os_dbg.o
                0x00007110                OSDbg_StkWidth
 .rodata.OSDbg_StatTaskEn
                0x00007111        0x1 ./uCOS-III/Source/os_dbg.o
                0x00007111                OSDbg_StatTaskEn
 .rodata.OSDbg_StatTaskStkChkEn
                0x00007112        0x1 ./uCOS-III/Source/os_dbg.o
                0x00007112                OSDbg_StatTaskStkChkEn
 .rodata.OSDbg_TaskChangePrioEn
                0x00007113        0x1 ./uCOS-III/Source/os_dbg.o
                0x00007113                OSDbg_TaskChangePrioEn
 .rodata.OSDbg_TaskDelEn
                0x00007114        0x1 ./uCOS-III/Source/os_dbg.o
                0x00007114                OSDbg_TaskDelEn
 .rodata.OSDbg_TaskQEn
                0x00007115        0x1 ./uCOS-III/Source/os_dbg.o
                0x00007115                OSDbg_TaskQEn
 .rodata.OSDbg_TaskQPendAbortEn
                0x00007116        0x1 ./uCOS-III/Source/os_dbg.o
                0x00007116                OSDbg_TaskQPendAbortEn
 .rodata.OSDbg_TaskProfileEn
                0x00007117        0x1 ./uCOS-III/Source/os_dbg.o
                0x00007117                OSDbg_TaskProfileEn
 .rodata.OSDbg_TaskRegTblSize
                0x00007118        0x2 ./uCOS-III/Source/os_dbg.o
                0x00007118                OSDbg_TaskRegTblSize
 .rodata.OSDbg_TaskSemPendAbortEn
                0x0000711a        0x1 ./uCOS-III/Source/os_dbg.o
                0x0000711a                OSDbg_TaskSemPendAbortEn
 .rodata.OSDbg_TaskSuspendEn
                0x0000711b        0x1 ./uCOS-III/Source/os_dbg.o
                0x0000711b                OSDbg_TaskSuspendEn
 .rodata.OSDbg_TCBSize
                0x0000711c        0x2 ./uCOS-III/Source/os_dbg.o
                0x0000711c                OSDbg_TCBSize
 .rodata.OSDbg_TickListSize
                0x0000711e        0x2 ./uCOS-III/Source/os_dbg.o
                0x0000711e                OSDbg_TickListSize
 .rodata.OSDbg_TimeDlyHMSMEn
                0x00007120        0x1 ./uCOS-III/Source/os_dbg.o
                0x00007120                OSDbg_TimeDlyHMSMEn
 .rodata.OSDbg_TimeDlyResumeEn
                0x00007121        0x1 ./uCOS-III/Source/os_dbg.o
                0x00007121                OSDbg_TimeDlyResumeEn
 *fill*         0x00007122        0x2 
 .rodata.OSDbg_Tmr
                0x00007124       0x30 ./uCOS-III/Source/os_dbg.o
                0x00007124                OSDbg_Tmr
 .rodata.OSDbg_TmrEn
                0x00007154        0x1 ./uCOS-III/Source/os_dbg.o
                0x00007154                OSDbg_TmrEn
 .rodata.OSDbg_TmrDelEn
                0x00007155        0x1 ./uCOS-III/Source/os_dbg.o
                0x00007155                OSDbg_TmrDelEn
 .rodata.OSDbg_TmrSize
                0x00007156        0x2 ./uCOS-III/Source/os_dbg.o
                0x00007156                OSDbg_TmrSize
 .rodata.OSDbg_VersionNbr
                0x00007158        0x2 ./uCOS-III/Source/os_dbg.o
                0x00007158                OSDbg_VersionNbr
 *fill*         0x0000715a        0x2 
 .rodata.OSDbg_DataSize
                0x0000715c        0x4 ./uCOS-III/Source/os_dbg.o
                0x0000715c                OSDbg_DataSize
 .rodata.__func__.14565
                0x00007160       0x18 ./KSDK/platform/system/interrupt/src/fsl_interrupt_manager.o
 .rodata.g_simBaseAddr
                0x00007178        0x4 ./KSDK/platform/system/clock/fsl_clock_manager.o
                0x00007178                g_simBaseAddr
 .rodata.__func__.14597
                0x0000717c       0x14 ./KSDK/platform/hal/gpio/fsl_gpio_hal.o
 .rodata.__func__.14603
                0x00007190       0x18 ./KSDK/platform/hal/gpio/fsl_gpio_hal.o
 .rodata.__func__.14581
                0x000071a8       0x14 ./KSDK/platform/drivers/gpio/src/fsl_gpio_driver.o
 .rodata.__func__.14575
                0x000071bc       0x18 ./KSDK/platform/drivers/gpio/src/fsl_gpio_driver.o
 .rodata.__func__.14593
                0x000071d4       0x20 ./KSDK/platform/drivers/gpio/src/fsl_gpio_driver.o
 .rodata.__func__.14623
                0x000071f4       0x20 ./KSDK/platform/drivers/gpio/src/fsl_gpio_driver.o
 .rodata.__func__.14645
                0x00007214       0x18 ./KSDK/platform/drivers/gpio/src/fsl_gpio_driver.o
 .rodata.__func__.16274
                0x0000722c       0x14 ./KSDK/platform/drivers/gpio/src/fsl_gpio_driver.o
 .rodata.__func__.14587
                0x00007240       0x1c ./KSDK/platform/drivers/gpio/src/fsl_gpio_driver.o
 .rodata.__func__.14605
                0x0000725c       0x20 ./KSDK/platform/drivers/gpio/src/fsl_gpio_driver.o
 .rodata.__func__.14599
                0x0000727c       0x1c ./KSDK/platform/drivers/gpio/src/fsl_gpio_driver.o
 .rodata.__func__.14719
                0x00007298       0x1c ./KSDK/platform/drivers/gpio/src/fsl_gpio_driver.o
 .rodata.g_gpioBaseAddr
                0x000072b4       0x14 ./KSDK/platform/drivers/gpio/common/fsl_gpio_common.o
                0x000072b4                g_gpioBaseAddr
 .rodata.g_portBaseAddr
                0x000072c8       0x14 ./KSDK/platform/drivers/gpio/common/fsl_gpio_common.o
                0x000072c8                g_portBaseAddr
 .rodata.g_portIrqId
                0x000072dc        0x8 ./KSDK/platform/drivers/gpio/common/fsl_gpio_common.o
                0x000072dc                g_portIrqId
 .rodata.ledPins
                0x000072e4       0x30 ./KSDK/boards/frdmk64f120m/gpio_pins.o
                0x000072e4                ledPins
 .rodata.__func__.14611
                0x00007314       0x14 ./KSDK/boards/frdmk64f120m/pin_mux.o
 .rodata.__func__.14599
                0x00007328       0x1c ./KSDK/boards/frdmk64f120m/pin_mux.o
 .rodata.__func__.14575
                0x00007344       0x18 ./KSDK/boards/frdmk64f120m/pin_mux.o
 .rodata.__func__.14581
                0x0000735c       0x14 ./KSDK/boards/frdmk64f120m/pin_mux.o
 .rodata.__func__.14593
                0x00007370       0x20 ./KSDK/boards/frdmk64f120m/pin_mux.o
 .rodata.__func__.14605
                0x00007390       0x20 ./KSDK/boards/frdmk64f120m/pin_mux.o
 .rodata.__func__.14587
                0x000073b0       0x1c ./KSDK/boards/frdmk64f120m/pin_mux.o
 .rodata.__func__.14540
                0x000073cc       0x14 ./APP/app.o
 .rodata.str1.1
                0x000073e0       0x3c c:/freescale/kds_v3/toolchain/bin/../lib/gcc/arm-none-eabi/4.8.4/../../../../arm-none-eabi/lib/armv7e-m/fpu\libg_s.a(lib_a-assert.o)
                                 0x3d (size before relaxing)
 .rodata.str1.1
                0x0000741c        0x2 c:/freescale/kds_v3/toolchain/bin/../lib/gcc/arm-none-eabi/4.8.4/../../../../arm-none-eabi/lib/armv7e-m/fpu\libg_s.a(lib_a-impure.o)
 *fill*         0x0000741e        0x2 
 .rodata._global_impure_ptr
                0x00007420        0x4 c:/freescale/kds_v3/toolchain/bin/../lib/gcc/arm-none-eabi/4.8.4/../../../../arm-none-eabi/lib/armv7e-m/fpu\libg_s.a(lib_a-impure.o)
                0x00007420                _global_impure_ptr
 .rodata.str1.1
                0x00007424       0x11 c:/freescale/kds_v3/toolchain/bin/../lib/gcc/arm-none-eabi/4.8.4/../../../../arm-none-eabi/lib/armv7e-m/fpu\libg_s.a(lib_a-vfprintf.o)
 .rodata.str1.1
                0x00007435       0x22 c:/freescale/kds_v3/toolchain/bin/../lib/gcc/arm-none-eabi/4.8.4/../../../../arm-none-eabi/lib/armv7e-m/fpu\libg_s.a(lib_a-vfprintf_i.o)
 *fill*         0x00007457        0x1 
 .rodata.__sf_fake_stdin
                0x00007458       0x20 c:/freescale/kds_v3/toolchain/bin/../lib/gcc/arm-none-eabi/4.8.4/../../../../arm-none-eabi/lib/armv7e-m/fpu\libg_s.a(lib_a-findfp.o)
                0x00007458                __sf_fake_stdin
 .rodata.__sf_fake_stdout
                0x00007478       0x20 c:/freescale/kds_v3/toolchain/bin/../lib/gcc/arm-none-eabi/4.8.4/../../../../arm-none-eabi/lib/armv7e-m/fpu\libg_s.a(lib_a-findfp.o)
                0x00007478                __sf_fake_stdout
 .rodata.__sf_fake_stderr
                0x00007498       0x20 c:/freescale/kds_v3/toolchain/bin/../lib/gcc/arm-none-eabi/4.8.4/../../../../arm-none-eabi/lib/armv7e-m/fpu\libg_s.a(lib_a-findfp.o)
                0x00007498                __sf_fake_stderr
 *(.glue_7)
 .glue_7        0x00000000        0x0 linker stubs
 *(.glue_7t)
 .glue_7t       0x00000000        0x0 linker stubs
 *(.eh_frame)
 .eh_frame      0x000074b8        0x0 c:/freescale/kds_v3/toolchain/bin/../lib/gcc/arm-none-eabi/4.8.4/armv7e-m/fpu/crtbegin.o
 *(.init)
 .init          0x000074b8        0x4 c:/freescale/kds_v3/toolchain/bin/../lib/gcc/arm-none-eabi/4.8.4/armv7e-m/fpu/crti.o
                0x000074b8                _init
 .init          0x000074bc        0x8 c:/freescale/kds_v3/toolchain/bin/../lib/gcc/arm-none-eabi/4.8.4/armv7e-m/fpu/crtn.o
 *(.fini)
 .fini          0x000074c4        0x4 c:/freescale/kds_v3/toolchain/bin/../lib/gcc/arm-none-eabi/4.8.4/armv7e-m/fpu/crti.o
                0x000074c4                _fini
 .fini          0x000074c8        0x8 c:/freescale/kds_v3/toolchain/bin/../lib/gcc/arm-none-eabi/4.8.4/armv7e-m/fpu/crtn.o
                0x000074d0                . = ALIGN (0x4)

.vfp11_veneer   0x000074d0        0x0
 .vfp11_veneer  0x00000000        0x0 linker stubs

.v4_bx          0x000074d0        0x0
 .v4_bx         0x00000000        0x0 linker stubs

.iplt           0x000074d0        0x0
 .iplt          0x00000000        0x0 c:/freescale/kds_v3/toolchain/bin/../lib/gcc/arm-none-eabi/4.8.4/armv7e-m/fpu/crtbegin.o

.ARM.extab
 *(.ARM.extab* .gnu.linkonce.armextab.*)

.ARM            0x000074d0        0x8
                0x000074d0                __exidx_start = .
 *(.ARM.exidx*)
 .ARM.exidx     0x000074d0        0x8 c:/freescale/kds_v3/toolchain/bin/../lib/gcc/arm-none-eabi/4.8.4/../../../../arm-none-eabi/lib/armv7e-m/fpu/crt0.o
                0x000074d8                __exidx_end = .

.rel.dyn        0x000074d8        0x0
 .rel.iplt      0x00000000        0x0 c:/freescale/kds_v3/toolchain/bin/../lib/gcc/arm-none-eabi/4.8.4/armv7e-m/fpu/crtbegin.o

.ctors          0x000074d8        0x0
                0x000074d8                __CTOR_LIST__ = .
 *crtbegin.o(.ctors)
 *crtbegin?.o(.ctors)
 *(EXCLUDE_FILE(*crtend.o *crtend?.o) .ctors)
 *(SORT(.ctors.*))
 *(.ctors)
                0x000074d8                __CTOR_END__ = .

.dtors          0x000074d8        0x0
                0x000074d8                __DTOR_LIST__ = .
 *crtbegin.o(.dtors)
 *crtbegin?.o(.dtors)
 *(EXCLUDE_FILE(*crtend.o *crtend?.o) .dtors)
 *(SORT(.dtors.*))
 *(.dtors)
                0x000074d8                __DTOR_END__ = .

.preinit_array  0x000074d8        0x0
                0x000074d8                PROVIDE (__preinit_array_start, .)
 *(.preinit_array*)
                0x000074d8                PROVIDE (__preinit_array_end, .)

.init_array     0x000074d8        0x4
                0x000074d8                PROVIDE (__init_array_start, .)
 *(SORT(.init_array.*))
 *(.init_array*)
 .init_array    0x000074d8        0x4 c:/freescale/kds_v3/toolchain/bin/../lib/gcc/arm-none-eabi/4.8.4/armv7e-m/fpu/crtbegin.o
                0x000074dc                PROVIDE (__init_array_end, .)

.fini_array     0x000074dc        0x4
                0x000074dc                PROVIDE (__fini_array_start, .)
 *(SORT(.fini_array.*))
 *(.fini_array*)
 .fini_array    0x000074dc        0x4 c:/freescale/kds_v3/toolchain/bin/../lib/gcc/arm-none-eabi/4.8.4/armv7e-m/fpu/crtbegin.o
                0x000074e0                PROVIDE (__fini_array_end, .)
                0x000074e0                __etext = .
                0x000074e0                __DATA_ROM = .

.data           0x20000000       0xa8 load address 0x000074e0
                0x20000000                . = ALIGN (0x4)
                0x20000000                __DATA_RAM = .
                0x20000000                __data_start__ = .
 *(.data)
 *(.data*)
 .data.SystemCoreClock
                0x20000000        0x4 ./KSDK/platform/startup/MK64F12/system_MK64F12.o
                0x20000000                SystemCoreClock
 .data.switchPins
                0x20000004       0x3c ./KSDK/boards/frdmk64f120m/gpio_pins.o
                0x20000004                switchPins
 .data.impure_data
                0x20000040       0x60 c:/freescale/kds_v3/toolchain/bin/../lib/gcc/arm-none-eabi/4.8.4/../../../../arm-none-eabi/lib/armv7e-m/fpu\libg_s.a(lib_a-impure.o)
 .data._impure_ptr
                0x200000a0        0x4 c:/freescale/kds_v3/toolchain/bin/../lib/gcc/arm-none-eabi/4.8.4/../../../../arm-none-eabi/lib/armv7e-m/fpu\libg_s.a(lib_a-impure.o)
                0x200000a0                _impure_ptr
 *(.jcr*)
 .jcr           0x200000a4        0x0 c:/freescale/kds_v3/toolchain/bin/../lib/gcc/arm-none-eabi/4.8.4/armv7e-m/fpu/crtbegin.o
 .jcr           0x200000a4        0x4 c:/freescale/kds_v3/toolchain/bin/../lib/gcc/arm-none-eabi/4.8.4/armv7e-m/fpu/crtend.o
                0x200000a8                . = ALIGN (0x4)
                0x200000a8                __data_end__ = .
                0x00007588                __DATA_END = (__DATA_ROM + (__data_end__ - __data_start__))
                0x00007588                __m_interrupts_ram_ROMStart = (__DATA_ROM + SIZEOF (.data))

.igot.plt       0x200000a8        0x0 load address 0x00007588
 .igot.plt      0x00000000        0x0 c:/freescale/kds_v3/toolchain/bin/../lib/gcc/arm-none-eabi/4.8.4/armv7e-m/fpu/crtbegin.o

.m_interrupts_ram
                0x1fff0000        0x0 load address 0x00007588
                0x1fff0000                . = ALIGN (0x4)
                0x1fff0000                __m_interrupts_ram_RAMStart = .
 *(.m_interrupts_ram)
                0x1fff0000                __m_interrupts_ram_RAMEnd = .
                0x1fff0000                . = ALIGN (0x4)
                0x00000000                __m_interrupts_ram_ROMSize = (__m_interrupts_ram_RAMEnd - __m_interrupts_ram_RAMStart)

.bss            0x200000a8     0x30a4 load address 0x00007588
                0x200000a8                . = ALIGN (0x4)
                0x200000a8                __START_BSS = .
                0x200000a8                __bss_start__ = .
 *(.bss)
 .bss           0x200000a8       0x1c c:/freescale/kds_v3/toolchain/bin/../lib/gcc/arm-none-eabi/4.8.4/armv7e-m/fpu/crtbegin.o
 *(.bss*)
 .bss.g_interruptDisableCount
                0x200000c4        0x4 ./KSDK/platform/system/interrupt/src/fsl_interrupt_manager.o
                0x200000c4                g_interruptDisableCount
 .bss.val       0x200000c8        0x2 ./APP/app.o
                0x200000c8                val
 *fill*         0x200000ca        0x2 
 .bss.sem1      0x200000cc       0x28 ./APP/app.o
 .bss.StartTaskTCB
                0x200000f4       0xc4 ./APP/app.o
 .bss.LEDTaskTCB
                0x200001b8       0xc4 ./APP/app.o
 .bss.ADCTaskTCB
                0x2000027c       0xc4 ./APP/app.o
 .bss.StartTaskStack
                0x20000340      0x800 ./APP/app.o
 .bss.LEDTaskStack
                0x20000b40      0x800 ./APP/app.o
 .bss.ADCTaskStack
                0x20001340      0x800 ./APP/app.o
 .bss.__malloc_sbrk_start
                0x20001b40        0x4 c:/freescale/kds_v3/toolchain/bin/../lib/gcc/arm-none-eabi/4.8.4/../../../../arm-none-eabi/lib/armv7e-m/fpu\libg_s.a(lib_a-nano-mallocr.o)
                0x20001b40                __malloc_sbrk_start
 .bss.__malloc_free_list
                0x20001b44        0x4 c:/freescale/kds_v3/toolchain/bin/../lib/gcc/arm-none-eabi/4.8.4/../../../../arm-none-eabi/lib/armv7e-m/fpu\libg_s.a(lib_a-nano-mallocr.o)
                0x20001b44                __malloc_free_list
 .bss.heap_end.4246
                0x20001b48        0x4 c:/freescale/kds_v3/toolchain/bin/../lib/gcc/arm-none-eabi/4.8.4/../../../../arm-none-eabi/lib/armv7e-m/fpu\libnosys.a(sbrk.o)
 *(COMMON)
 COMMON         0x20001b4c     0x1040 ./uCOS-III/Source/os_cfg_app.o
                0x20001b4c                OSCfg_StatTaskStk
                0x20001d4c                OSCfg_MsgPool
                0x2000238c                OSCfg_TmrTaskStk
                0x2000258c                OSCfg_ISRStk
                0x2000278c                OSCfg_TickTaskStk
                0x2000298c                OSCfg_IdleTaskStk
 COMMON         0x20002b8c        0x4 ./uCOS-III/Source/os_prio.o
                0x20002b8c                OSPrioTbl
 COMMON         0x20002b90      0x590 ./uCOS-III/Source/os_var.o
                0x20002b90                OSSchedLockNestingCtr
                0x20002b94                OS_AppTaskReturnHookPtr
                0x20002b98                OSStatTaskTimeMax
                0x20002b9c                OSStatTaskCtr
                0x20002ba0                OSTaskRegNextAvailID
                0x20002ba1                OSRunning
                0x20002ba4                OSRdyList
                0x20002d24                OSPrioHighRdy
                0x20002d25                OSStatTaskRdy
                0x20002d28                OSSemDbgListPtr
                0x20002d2c                OS_AppTaskCreateHookPtr
                0x20002d30                OSPrioCur
                0x20002d34                OSTickTaskTCB
                0x20002df8                OSTmrTickCtr
                0x20002dfc                OSTCBCurPtr
                0x20002e00                OSQQty
                0x20002e02                OSStatTaskCPUUsageMax
                0x20002e04                OSPrioSaved
                0x20002e08                OSTCBHighRdyPtr
                0x20002e0c                OSTaskDbgListPtr
                0x20002e10                OSTmrTaskTimeMax
                0x20002e14                OS_AppTaskDelHookPtr
                0x20002e18                OS_AppTimeTickHookPtr
                0x20002e1c                OSStatTaskCPUUsage
                0x20002e20                OSTaskCtxSwCtr
                0x20002e24                OSIntNestingCtr
                0x20002e26                OSTaskQty
                0x20002e28                OSTmrTaskTCB
                0x20002eec                OSMsgPool
                0x20002ef8                OSIdleTaskTCB
                0x20002fbc                OSQDbgListPtr
                0x20002fc0                OSSemQty
                0x20002fc4                OSMemDbgListPtr
                0x20002fc8                OSSchedRoundRobinDfltTimeQuanta
                0x20002fcc                OSTmrMutex
                0x20002ffc                OS_AppIdleTaskHookPtr
                0x20003000                OSStatTaskCtrMax
                0x20003004                OSTickCtr
                0x20003008                OS_AppTaskSwHookPtr
                0x2000300c                OSTmrQty
                0x20003010                OSIdleTaskCtr
                0x20003014                OSStatTaskCtrRun
                0x20003018                OS_AppStatTaskHookPtr
                0x2000301c                OSFlagQty
                0x20003020                OSFlagDbgListPtr
                0x20003024                OSStatResetFlag
                0x20003026                OSMemQty
                0x20003028                OSMutexQty
                0x2000302c                OSStatTaskTCB
                0x200030f0                OSTmrListPtr
                0x200030f4                OSTmrDbgListPtr
                0x200030f8                OSTickTaskTimeMax
                0x200030fc                OSTmrListEntries
                0x20003100                OSTmrUpdateCnt
                0x20003104                OSSchedRoundRobinEn
                0x20003108                OSMutexDbgListPtr
                0x2000310c                OSTickListDly
                0x20003114                OSTmrUpdateCtr
                0x20003118                OSTickListTimeout
 COMMON         0x20003120        0x4 ./uCOS-III/Ports/ARM-Cortex-M4/Generic/GNU/os_cpu_c.o
                0x20003120                OS_CPU_ExceptStkBase
 *fill*         0x20003124        0x4 
 COMMON         0x20003128       0x20 ./uC-CPU/cpu_core.o
                0x20003128                CPU_TS_TmrFreq_Hz
                0x2000312c                CPU_TS_64_TmrPrev
                0x20003130                CPU_TS_64_Accum
                0x20003138                CPU_Name
 COMMON         0x20003148        0x4 c:/freescale/kds_v3/toolchain/bin/../lib/gcc/arm-none-eabi/4.8.4/../../../../arm-none-eabi/lib/armv7e-m/fpu\libg_s.a(lib_a-reent.o)
                0x20003148                errno
                0x2000314c                . = ALIGN (0x4)
                0x2000314c                __bss_end__ = .
                0x2000314c                __END_BSS = .

.heap           0x1fff0400     0x8000
                0x1fff0400                . = ALIGN (0x8)
                0x1fff0400                __end__ = .
                0x1fff0400                PROVIDE (end, .)
                0x1fff0400                __HeapBase = .
                0x1fff8400                . = (. + HEAP_SIZE)
 *fill*         0x1fff0400     0x8000 
                0x1fff8400                __HeapLimit = .

.stack          0x1fff8400     0x4000
                0x1fff8400                . = ALIGN (0x8)
                0x1fffc400                . = (. + STACK_SIZE)
 *fill*         0x1fff8400     0x4000 
                0x1fffc400                __StackTop = .
                0x1fff8400                __StackLimit = (__StackTop - STACK_SIZE)
                0x1fffc400                PROVIDE (__stack, __StackTop)

.ARM.attributes
                0x00000000       0x30
 *(.ARM.attributes)
 .ARM.attributes
                0x00000000       0x22 c:/freescale/kds_v3/toolchain/bin/../lib/gcc/arm-none-eabi/4.8.4/armv7e-m/fpu/crti.o
 .ARM.attributes
                0x00000022       0x34 c:/freescale/kds_v3/toolchain/bin/../lib/gcc/arm-none-eabi/4.8.4/armv7e-m/fpu/crtbegin.o
 .ARM.attributes
                0x00000056       0x20 c:/freescale/kds_v3/toolchain/bin/../lib/gcc/arm-none-eabi/4.8.4/../../../../arm-none-eabi/lib/armv7e-m/fpu/crt0.o
 .ARM.attributes
                0x00000076       0x39 ./uCOS-III/Source/os_cfg_app.o
 .ARM.attributes
                0x000000af       0x39 ./uCOS-III/Source/os_core.o
 .ARM.attributes
                0x000000e8       0x39 ./uCOS-III/Source/os_dbg.o
 .ARM.attributes
                0x00000121       0x39 ./uCOS-III/Source/os_flag.o
 .ARM.attributes
                0x0000015a       0x39 ./uCOS-III/Source/os_mem.o
 .ARM.attributes
                0x00000193       0x39 ./uCOS-III/Source/os_msg.o
 .ARM.attributes
                0x000001cc       0x39 ./uCOS-III/Source/os_mutex.o
 .ARM.attributes
                0x00000205       0x39 ./uCOS-III/Source/os_prio.o
 .ARM.attributes
                0x0000023e       0x39 ./uCOS-III/Source/os_q.o
 .ARM.attributes
                0x00000277       0x39 ./uCOS-III/Source/os_sem.o
 .ARM.attributes
                0x000002b0       0x39 ./uCOS-III/Source/os_stat.o
 .ARM.attributes
                0x000002e9       0x39 ./uCOS-III/Source/os_task.o
 .ARM.attributes
                0x00000322       0x39 ./uCOS-III/Source/os_tick.o
 .ARM.attributes
                0x0000035b       0x39 ./uCOS-III/Source/os_time.o
 .ARM.attributes
                0x00000394       0x39 ./uCOS-III/Source/os_tmr.o
 .ARM.attributes
                0x000003cd       0x39 ./uCOS-III/Source/os_var.o
 .ARM.attributes
                0x00000406       0x25 ./uCOS-III/Ports/ARM-Cortex-M4/Generic/GNU/os_cpu_a.o
 .ARM.attributes
                0x0000042b       0x39 ./uCOS-III/Ports/ARM-Cortex-M4/Generic/GNU/os_cpu_c.o
 .ARM.attributes
                0x00000464       0x39 ./uC-LIB/lib_mem.o
 .ARM.attributes
                0x0000049d       0x39 ./uC-LIB/lib_str.o
 .ARM.attributes
                0x000004d6       0x25 ./uC-CPU/ARM-Cortex-M4/GNU/cpu_a.o
 .ARM.attributes
                0x000004fb       0x39 ./uC-CPU/cpu_core.o
 .ARM.attributes
                0x00000534       0x39 ./KSDK/platform/system/interrupt/src/fsl_interrupt_manager.o
 .ARM.attributes
                0x0000056d       0x39 ./KSDK/platform/system/clock/fsl_clock_manager.o
 .ARM.attributes
                0x000005a6       0x39 ./KSDK/platform/startup/MK64F12/system_MK64F12.o
 .ARM.attributes
                0x000005df       0x39 ./KSDK/platform/osa/src/fsl_os_abstraction_ucosiii.o
 .ARM.attributes
                0x00000618       0x39 ./KSDK/platform/hal/sim/MK64F12/fsl_sim_hal_K64F12.o
 .ARM.attributes
                0x00000651       0x39 ./KSDK/platform/hal/gpio/fsl_gpio_hal.o
 .ARM.attributes
                0x0000068a       0x39 ./KSDK/platform/drivers/gpio/src/fsl_gpio_driver.o
 .ARM.attributes
                0x000006c3       0x39 ./KSDK/platform/drivers/gpio/common/fsl_gpio_common.o
 .ARM.attributes
                0x000006fc       0x39 ./KSDK/boards/frdmk64f120m/gpio_pins.o
 .ARM.attributes
                0x00000735       0x39 ./KSDK/boards/frdmk64f120m/hardware_init.o
 .ARM.attributes
                0x0000076e       0x39 ./KSDK/boards/frdmk64f120m/pin_mux.o
 .ARM.attributes
                0x000007a7       0x1f ./BSP/KSDK/KDS/startup_MK64F12.o
 .ARM.attributes
                0x000007c6       0x39 ./BSP/KSDK/startup.o
 .ARM.attributes
                0x000007ff       0x39 ./BSP/cpu_bsp.o
 .ARM.attributes
                0x00000838       0x39 ./APP/app.o
 .ARM.attributes
                0x00000871       0x34 c:/freescale/kds_v3/toolchain/bin/../lib/gcc/arm-none-eabi/4.8.4/../../../../arm-none-eabi/lib/armv7e-m/fpu\libg_s.a(lib_a-assert.o)
 .ARM.attributes
                0x000008a5       0x34 c:/freescale/kds_v3/toolchain/bin/../lib/gcc/arm-none-eabi/4.8.4/../../../../arm-none-eabi/lib/armv7e-m/fpu\libg_s.a(lib_a-exit.o)
 .ARM.attributes
                0x000008d9       0x34 c:/freescale/kds_v3/toolchain/bin/../lib/gcc/arm-none-eabi/4.8.4/../../../../arm-none-eabi/lib/armv7e-m/fpu\libg_s.a(lib_a-fprintf.o)
 .ARM.attributes
                0x0000090d       0x34 c:/freescale/kds_v3/toolchain/bin/../lib/gcc/arm-none-eabi/4.8.4/../../../../arm-none-eabi/lib/armv7e-m/fpu\libg_s.a(lib_a-impure.o)
 .ARM.attributes
                0x00000941       0x34 c:/freescale/kds_v3/toolchain/bin/../lib/gcc/arm-none-eabi/4.8.4/../../../../arm-none-eabi/lib/armv7e-m/fpu\libg_s.a(lib_a-init.o)
 .ARM.attributes
                0x00000975       0x34 c:/freescale/kds_v3/toolchain/bin/../lib/gcc/arm-none-eabi/4.8.4/../../../../arm-none-eabi/lib/armv7e-m/fpu\libg_s.a(lib_a-memset.o)
 .ARM.attributes
                0x000009a9       0x34 c:/freescale/kds_v3/toolchain/bin/../lib/gcc/arm-none-eabi/4.8.4/../../../../arm-none-eabi/lib/armv7e-m/fpu\libg_s.a(lib_a-nano-freer.o)
 .ARM.attributes
                0x000009dd       0x34 c:/freescale/kds_v3/toolchain/bin/../lib/gcc/arm-none-eabi/4.8.4/../../../../arm-none-eabi/lib/armv7e-m/fpu\libg_s.a(lib_a-nano-mallocr.o)
 .ARM.attributes
                0x00000a11       0x34 c:/freescale/kds_v3/toolchain/bin/../lib/gcc/arm-none-eabi/4.8.4/../../../../arm-none-eabi/lib/armv7e-m/fpu\libg_s.a(lib_a-sbrkr.o)
 .ARM.attributes
                0x00000a45       0x34 c:/freescale/kds_v3/toolchain/bin/../lib/gcc/arm-none-eabi/4.8.4/../../../../arm-none-eabi/lib/armv7e-m/fpu\libg_s.a(lib_a-vfprintf.o)
 .ARM.attributes
                0x00000a79       0x34 c:/freescale/kds_v3/toolchain/bin/../lib/gcc/arm-none-eabi/4.8.4/../../../../arm-none-eabi/lib/armv7e-m/fpu\libg_s.a(lib_a-vfprintf_i.o)
 .ARM.attributes
                0x00000aad       0x34 c:/freescale/kds_v3/toolchain/bin/../lib/gcc/arm-none-eabi/4.8.4/../../../../arm-none-eabi/lib/armv7e-m/fpu\libg_s.a(lib_a-wbuf.o)
 .ARM.attributes
                0x00000ae1       0x34 c:/freescale/kds_v3/toolchain/bin/../lib/gcc/arm-none-eabi/4.8.4/../../../../arm-none-eabi/lib/armv7e-m/fpu\libg_s.a(lib_a-wsetup.o)
 .ARM.attributes
                0x00000b15       0x34 c:/freescale/kds_v3/toolchain/bin/../lib/gcc/arm-none-eabi/4.8.4/../../../../arm-none-eabi/lib/armv7e-m/fpu\libg_s.a(lib_a-abort.o)
 .ARM.attributes
                0x00000b49       0x34 c:/freescale/kds_v3/toolchain/bin/../lib/gcc/arm-none-eabi/4.8.4/../../../../arm-none-eabi/lib/armv7e-m/fpu\libg_s.a(lib_a-fflush.o)
 .ARM.attributes
                0x00000b7d       0x34 c:/freescale/kds_v3/toolchain/bin/../lib/gcc/arm-none-eabi/4.8.4/../../../../arm-none-eabi/lib/armv7e-m/fpu\libg_s.a(lib_a-findfp.o)
 .ARM.attributes
                0x00000bb1       0x34 c:/freescale/kds_v3/toolchain/bin/../lib/gcc/arm-none-eabi/4.8.4/../../../../arm-none-eabi/lib/armv7e-m/fpu\libg_s.a(lib_a-makebuf.o)
 .ARM.attributes
                0x00000be5       0x34 c:/freescale/kds_v3/toolchain/bin/../lib/gcc/arm-none-eabi/4.8.4/../../../../arm-none-eabi/lib/armv7e-m/fpu\libg_s.a(lib_a-memchr-stub.o)
 .ARM.attributes
                0x00000c19       0x34 c:/freescale/kds_v3/toolchain/bin/../lib/gcc/arm-none-eabi/4.8.4/../../../../arm-none-eabi/lib/armv7e-m/fpu\libg_s.a(lib_a-reent.o)
 .ARM.attributes
                0x00000c4d       0x34 c:/freescale/kds_v3/toolchain/bin/../lib/gcc/arm-none-eabi/4.8.4/../../../../arm-none-eabi/lib/armv7e-m/fpu\libg_s.a(lib_a-signal.o)
 .ARM.attributes
                0x00000c81       0x34 c:/freescale/kds_v3/toolchain/bin/../lib/gcc/arm-none-eabi/4.8.4/../../../../arm-none-eabi/lib/armv7e-m/fpu\libg_s.a(lib_a-signalr.o)
 .ARM.attributes
                0x00000cb5       0x34 c:/freescale/kds_v3/toolchain/bin/../lib/gcc/arm-none-eabi/4.8.4/../../../../arm-none-eabi/lib/armv7e-m/fpu\libg_s.a(lib_a-stdio.o)
 .ARM.attributes
                0x00000ce9       0x34 c:/freescale/kds_v3/toolchain/bin/../lib/gcc/arm-none-eabi/4.8.4/../../../../arm-none-eabi/lib/armv7e-m/fpu\libg_s.a(lib_a-strlen.o)
 .ARM.attributes
                0x00000d1d       0x34 c:/freescale/kds_v3/toolchain/bin/../lib/gcc/arm-none-eabi/4.8.4/../../../../arm-none-eabi/lib/armv7e-m/fpu\libg_s.a(lib_a-writer.o)
 .ARM.attributes
                0x00000d51       0x34 c:/freescale/kds_v3/toolchain/bin/../lib/gcc/arm-none-eabi/4.8.4/../../../../arm-none-eabi/lib/armv7e-m/fpu\libg_s.a(lib_a-closer.o)
 .ARM.attributes
                0x00000d85       0x34 c:/freescale/kds_v3/toolchain/bin/../lib/gcc/arm-none-eabi/4.8.4/../../../../arm-none-eabi/lib/armv7e-m/fpu\libg_s.a(lib_a-fstatr.o)
 .ARM.attributes
                0x00000db9       0x34 c:/freescale/kds_v3/toolchain/bin/../lib/gcc/arm-none-eabi/4.8.4/../../../../arm-none-eabi/lib/armv7e-m/fpu\libg_s.a(lib_a-isattyr.o)
 .ARM.attributes
                0x00000ded       0x34 c:/freescale/kds_v3/toolchain/bin/../lib/gcc/arm-none-eabi/4.8.4/../../../../arm-none-eabi/lib/armv7e-m/fpu\libg_s.a(lib_a-lseekr.o)
 .ARM.attributes
                0x00000e21       0x34 c:/freescale/kds_v3/toolchain/bin/../lib/gcc/arm-none-eabi/4.8.4/../../../../arm-none-eabi/lib/armv7e-m/fpu\libg_s.a(lib_a-readr.o)
 .ARM.attributes
                0x00000e55       0x34 c:/freescale/kds_v3/toolchain/bin/../lib/gcc/arm-none-eabi/4.8.4/../../../../arm-none-eabi/lib/armv7e-m/fpu\libnosys.a(close.o)
 .ARM.attributes
                0x00000e89       0x34 c:/freescale/kds_v3/toolchain/bin/../lib/gcc/arm-none-eabi/4.8.4/../../../../arm-none-eabi/lib/armv7e-m/fpu\libnosys.a(fstat.o)
 .ARM.attributes
                0x00000ebd       0x34 c:/freescale/kds_v3/toolchain/bin/../lib/gcc/arm-none-eabi/4.8.4/../../../../arm-none-eabi/lib/armv7e-m/fpu\libnosys.a(getpid.o)
 .ARM.attributes
                0x00000ef1       0x34 c:/freescale/kds_v3/toolchain/bin/../lib/gcc/arm-none-eabi/4.8.4/../../../../arm-none-eabi/lib/armv7e-m/fpu\libnosys.a(isatty.o)
 .ARM.attributes
                0x00000f25       0x34 c:/freescale/kds_v3/toolchain/bin/../lib/gcc/arm-none-eabi/4.8.4/../../../../arm-none-eabi/lib/armv7e-m/fpu\libnosys.a(kill.o)
 .ARM.attributes
                0x00000f59       0x34 c:/freescale/kds_v3/toolchain/bin/../lib/gcc/arm-none-eabi/4.8.4/../../../../arm-none-eabi/lib/armv7e-m/fpu\libnosys.a(lseek.o)
 .ARM.attributes
                0x00000f8d       0x34 c:/freescale/kds_v3/toolchain/bin/../lib/gcc/arm-none-eabi/4.8.4/../../../../arm-none-eabi/lib/armv7e-m/fpu\libnosys.a(read.o)
 .ARM.attributes
                0x00000fc1       0x34 c:/freescale/kds_v3/toolchain/bin/../lib/gcc/arm-none-eabi/4.8.4/../../../../arm-none-eabi/lib/armv7e-m/fpu\libnosys.a(sbrk.o)
 .ARM.attributes
                0x00000ff5       0x34 c:/freescale/kds_v3/toolchain/bin/../lib/gcc/arm-none-eabi/4.8.4/../../../../arm-none-eabi/lib/armv7e-m/fpu\libnosys.a(write.o)
 .ARM.attributes
                0x00001029       0x34 c:/freescale/kds_v3/toolchain/bin/../lib/gcc/arm-none-eabi/4.8.4/../../../../arm-none-eabi/lib/armv7e-m/fpu\libnosys.a(_exit.o)
 .ARM.attributes
                0x0000105d       0x34 c:/freescale/kds_v3/toolchain/bin/../lib/gcc/arm-none-eabi/4.8.4/armv7e-m/fpu/crtend.o
 .ARM.attributes
                0x00001091       0x22 c:/freescale/kds_v3/toolchain/bin/../lib/gcc/arm-none-eabi/4.8.4/armv7e-m/fpu/crtn.o
OUTPUT(OS3-KSDK.elf elf32-littlearm)

.debug_info     0x00000000    0x1a84a
 .debug_info    0x00000000      0x4a6 ./uCOS-III/Source/os_cfg_app.o
 .debug_info    0x000004a6     0x1821 ./uCOS-III/Source/os_core.o
 .debug_info    0x00001cc7     0x1394 ./uCOS-III/Source/os_dbg.o
 .debug_info    0x0000305b     0x11c4 ./uCOS-III/Source/os_flag.o
 .debug_info    0x0000421f      0x829 ./uCOS-III/Source/os_mem.o
 .debug_info    0x00004a48      0x8f4 ./uCOS-III/Source/os_msg.o
 .debug_info    0x0000533c     0x10c0 ./uCOS-III/Source/os_mutex.o
 .debug_info    0x000063fc      0x1bb ./uCOS-III/Source/os_prio.o
 .debug_info    0x000065b7     0x116b ./uCOS-III/Source/os_q.o
 .debug_info    0x00007722     0x1148 ./uCOS-III/Source/os_sem.o
 .debug_info    0x0000886a     0x1025 ./uCOS-III/Source/os_stat.o
 .debug_info    0x0000988f     0x15f6 ./uCOS-III/Source/os_task.o
 .debug_info    0x0000ae85      0xf9d ./uCOS-III/Source/os_tick.o
 .debug_info    0x0000be22      0xefc ./uCOS-III/Source/os_time.o
 .debug_info    0x0000cd1e     0x1290 ./uCOS-III/Source/os_tmr.o
 .debug_info    0x0000dfae      0xf8d ./uCOS-III/Source/os_var.o
 .debug_info    0x0000ef3b       0xdd ./uCOS-III/Ports/ARM-Cortex-M4/Generic/GNU/os_cpu_a.o
 .debug_info    0x0000f018      0x9cd ./uCOS-III/Ports/ARM-Cortex-M4/Generic/GNU/os_cpu_c.o
 .debug_info    0x0000f9e5     0x1120 ./uC-LIB/lib_mem.o
 .debug_info    0x00010b05      0xd4a ./uC-LIB/lib_str.o
 .debug_info    0x0001184f       0xca ./uC-CPU/ARM-Cortex-M4/GNU/cpu_a.o
 .debug_info    0x00011919      0x58d ./uC-CPU/cpu_core.o
 .debug_info    0x00011ea6      0x407 ./KSDK/platform/system/interrupt/src/fsl_interrupt_manager.o
 .debug_info    0x000122ad      0x558 ./KSDK/platform/system/clock/fsl_clock_manager.o
 .debug_info    0x00012805      0xb09 ./KSDK/platform/startup/MK64F12/system_MK64F12.o
 .debug_info    0x0001330e     0x1cc2 ./KSDK/platform/osa/src/fsl_os_abstraction_ucosiii.o
 .debug_info    0x00014fd0     0x1468 ./KSDK/platform/hal/sim/MK64F12/fsl_sim_hal_K64F12.o
 .debug_info    0x00016438      0x277 ./KSDK/platform/hal/gpio/fsl_gpio_hal.o
 .debug_info    0x000166af     0x127f ./KSDK/platform/drivers/gpio/src/fsl_gpio_driver.o
 .debug_info    0x0001792e      0x376 ./KSDK/platform/drivers/gpio/common/fsl_gpio_common.o
 .debug_info    0x00017ca4      0x39d ./KSDK/boards/frdmk64f120m/gpio_pins.o
 .debug_info    0x00018041      0x181 ./KSDK/boards/frdmk64f120m/hardware_init.o
 .debug_info    0x000181c2      0x747 ./KSDK/boards/frdmk64f120m/pin_mux.o
 .debug_info    0x00018909       0xbc ./BSP/KSDK/KDS/startup_MK64F12.o
 .debug_info    0x000189c5      0x37b ./BSP/KSDK/startup.o
 .debug_info    0x00018d40      0x1c3 ./BSP/cpu_bsp.o
 .debug_info    0x00018f03     0x1947 ./APP/app.o

.debug_abbrev   0x00000000     0x3179
 .debug_abbrev  0x00000000       0xbb ./uCOS-III/Source/os_cfg_app.o
 .debug_abbrev  0x000000bb      0x1cc ./uCOS-III/Source/os_core.o
 .debug_abbrev  0x00000287       0xfa ./uCOS-III/Source/os_dbg.o
 .debug_abbrev  0x00000381      0x1c8 ./uCOS-III/Source/os_flag.o
 .debug_abbrev  0x00000549      0x13f ./uCOS-III/Source/os_mem.o
 .debug_abbrev  0x00000688      0x14a ./uCOS-III/Source/os_msg.o
 .debug_abbrev  0x000007d2      0x1c8 ./uCOS-III/Source/os_mutex.o
 .debug_abbrev  0x0000099a       0xc4 ./uCOS-III/Source/os_prio.o
 .debug_abbrev  0x00000a5e      0x1c8 ./uCOS-III/Source/os_q.o
 .debug_abbrev  0x00000c26      0x1c8 ./uCOS-III/Source/os_sem.o
 .debug_abbrev  0x00000dee      0x15f ./uCOS-III/Source/os_stat.o
 .debug_abbrev  0x00000f4d      0x1ac ./uCOS-III/Source/os_task.o
 .debug_abbrev  0x000010f9      0x1c5 ./uCOS-III/Source/os_tick.o
 .debug_abbrev  0x000012be      0x17b ./uCOS-III/Source/os_time.o
 .debug_abbrev  0x00001439      0x20c ./uCOS-III/Source/os_tmr.o
 .debug_abbrev  0x00001645       0xb5 ./uCOS-III/Source/os_var.o
 .debug_abbrev  0x000016fa       0x14 ./uCOS-III/Ports/ARM-Cortex-M4/Generic/GNU/os_cpu_a.o
 .debug_abbrev  0x0000170e      0x1e4 ./uCOS-III/Ports/ARM-Cortex-M4/Generic/GNU/os_cpu_c.o
 .debug_abbrev  0x000018f2      0x1f5 ./uC-LIB/lib_mem.o
 .debug_abbrev  0x00001ae7      0x12e ./uC-LIB/lib_str.o
 .debug_abbrev  0x00001c15       0x14 ./uC-CPU/ARM-Cortex-M4/GNU/cpu_a.o
 .debug_abbrev  0x00001c29      0x1ad ./uC-CPU/cpu_core.o
 .debug_abbrev  0x00001dd6      0x130 ./KSDK/platform/system/interrupt/src/fsl_interrupt_manager.o
 .debug_abbrev  0x00001f06      0x14b ./KSDK/platform/system/clock/fsl_clock_manager.o
 .debug_abbrev  0x00002051      0x13c ./KSDK/platform/startup/MK64F12/system_MK64F12.o
 .debug_abbrev  0x0000218d      0x237 ./KSDK/platform/osa/src/fsl_os_abstraction_ucosiii.o
 .debug_abbrev  0x000023c4      0x162 ./KSDK/platform/hal/sim/MK64F12/fsl_sim_hal_K64F12.o
 .debug_abbrev  0x00002526      0x150 ./KSDK/platform/hal/gpio/fsl_gpio_hal.o
 .debug_abbrev  0x00002676      0x2f7 ./KSDK/platform/drivers/gpio/src/fsl_gpio_driver.o
 .debug_abbrev  0x0000296d       0x98 ./KSDK/platform/drivers/gpio/common/fsl_gpio_common.o
 .debug_abbrev  0x00002a05       0xa9 ./KSDK/boards/frdmk64f120m/gpio_pins.o
 .debug_abbrev  0x00002aae       0xf1 ./KSDK/boards/frdmk64f120m/hardware_init.o
 .debug_abbrev  0x00002b9f      0x159 ./KSDK/boards/frdmk64f120m/pin_mux.o
 .debug_abbrev  0x00002cf8       0x14 ./BSP/KSDK/KDS/startup_MK64F12.o
 .debug_abbrev  0x00002d0c       0xf5 ./BSP/KSDK/startup.o
 .debug_abbrev  0x00002e01       0xcc ./BSP/cpu_bsp.o
 .debug_abbrev  0x00002ecd      0x2ac ./APP/app.o

.debug_aranges  0x00000000     0x1150
 .debug_aranges
                0x00000000       0x20 ./uCOS-III/Source/os_cfg_app.o
 .debug_aranges
                0x00000020      0x138 ./uCOS-III/Source/os_core.o
 .debug_aranges
                0x00000158       0x20 ./uCOS-III/Source/os_dbg.o
 .debug_aranges
                0x00000178       0x78 ./uCOS-III/Source/os_flag.o
 .debug_aranges
                0x000001f0       0x40 ./uCOS-III/Source/os_mem.o
 .debug_aranges
                0x00000230       0x40 ./uCOS-III/Source/os_msg.o
 .debug_aranges
                0x00000270       0x78 ./uCOS-III/Source/os_mutex.o
 .debug_aranges
                0x000002e8       0x38 ./uCOS-III/Source/os_prio.o
 .debug_aranges
                0x00000320       0x70 ./uCOS-III/Source/os_q.o
 .debug_aranges
                0x00000390       0x70 ./uCOS-III/Source/os_sem.o
 .debug_aranges
                0x00000400       0x38 ./uCOS-III/Source/os_stat.o
 .debug_aranges
                0x00000438       0xf0 ./uCOS-III/Source/os_task.o
 .debug_aranges
                0x00000528       0x58 ./uCOS-III/Source/os_tick.o
 .debug_aranges
                0x00000580       0x48 ./uCOS-III/Source/os_time.o
 .debug_aranges
                0x000005c8       0x90 ./uCOS-III/Source/os_tmr.o
 .debug_aranges
                0x00000658       0x18 ./uCOS-III/Source/os_var.o
 .debug_aranges
                0x00000670       0x20 ./uCOS-III/Ports/ARM-Cortex-M4/Generic/GNU/os_cpu_a.o
 .debug_aranges
                0x00000690       0x70 ./uCOS-III/Ports/ARM-Cortex-M4/Generic/GNU/os_cpu_c.o
 .debug_aranges
                0x00000700       0xf8 ./uC-LIB/lib_mem.o
 .debug_aranges
                0x000007f8       0xd8 ./uC-LIB/lib_str.o
 .debug_aranges
                0x000008d0       0x20 ./uC-CPU/ARM-Cortex-M4/GNU/cpu_a.o
 .debug_aranges
                0x000008f0       0xb8 ./uC-CPU/cpu_core.o
 .debug_aranges
                0x000009a8       0x30 ./KSDK/platform/system/interrupt/src/fsl_interrupt_manager.o
 .debug_aranges
                0x000009d8       0x48 ./KSDK/platform/system/clock/fsl_clock_manager.o
 .debug_aranges
                0x00000a20       0x28 ./KSDK/platform/startup/MK64F12/system_MK64F12.o
 .debug_aranges
                0x00000a48      0x128 ./KSDK/platform/osa/src/fsl_os_abstraction_ucosiii.o
 .debug_aranges
                0x00000b70      0x2b8 ./KSDK/platform/hal/sim/MK64F12/fsl_sim_hal_K64F12.o
 .debug_aranges
                0x00000e28       0x28 ./KSDK/platform/hal/gpio/fsl_gpio_hal.o
 .debug_aranges
                0x00000e50      0x100 ./KSDK/platform/drivers/gpio/src/fsl_gpio_driver.o
 .debug_aranges
                0x00000f50       0x18 ./KSDK/platform/drivers/gpio/common/fsl_gpio_common.o
 .debug_aranges
                0x00000f68       0x18 ./KSDK/boards/frdmk64f120m/gpio_pins.o
 .debug_aranges
                0x00000f80       0x30 ./KSDK/boards/frdmk64f120m/hardware_init.o
 .debug_aranges
                0x00000fb0       0xc8 ./KSDK/boards/frdmk64f120m/pin_mux.o
 .debug_aranges
                0x00001078       0x20 ./BSP/KSDK/KDS/startup_MK64F12.o
 .debug_aranges
                0x00001098       0x20 ./BSP/KSDK/startup.o
 .debug_aranges
                0x000010b8       0x38 ./BSP/cpu_bsp.o
 .debug_aranges
                0x000010f0       0x60 ./APP/app.o

.debug_ranges   0x00000000      0xeb8
 .debug_ranges  0x00000000       0x10 ./uCOS-III/Source/os_cfg_app.o
 .debug_ranges  0x00000010      0x128 ./uCOS-III/Source/os_core.o
 .debug_ranges  0x00000138       0x10 ./uCOS-III/Source/os_dbg.o
 .debug_ranges  0x00000148       0x68 ./uCOS-III/Source/os_flag.o
 .debug_ranges  0x000001b0       0x30 ./uCOS-III/Source/os_mem.o
 .debug_ranges  0x000001e0       0x30 ./uCOS-III/Source/os_msg.o
 .debug_ranges  0x00000210       0x68 ./uCOS-III/Source/os_mutex.o
 .debug_ranges  0x00000278       0x28 ./uCOS-III/Source/os_prio.o
 .debug_ranges  0x000002a0       0x60 ./uCOS-III/Source/os_q.o
 .debug_ranges  0x00000300       0x60 ./uCOS-III/Source/os_sem.o
 .debug_ranges  0x00000360       0x28 ./uCOS-III/Source/os_stat.o
 .debug_ranges  0x00000388       0xe0 ./uCOS-III/Source/os_task.o
 .debug_ranges  0x00000468       0x48 ./uCOS-III/Source/os_tick.o
 .debug_ranges  0x000004b0       0x38 ./uCOS-III/Source/os_time.o
 .debug_ranges  0x000004e8       0x80 ./uCOS-III/Source/os_tmr.o
 .debug_ranges  0x00000568       0x60 ./uCOS-III/Ports/ARM-Cortex-M4/Generic/GNU/os_cpu_c.o
 .debug_ranges  0x000005c8       0xe8 ./uC-LIB/lib_mem.o
 .debug_ranges  0x000006b0       0xc8 ./uC-LIB/lib_str.o
 .debug_ranges  0x00000778       0xa8 ./uC-CPU/cpu_core.o
 .debug_ranges  0x00000820       0x20 ./KSDK/platform/system/interrupt/src/fsl_interrupt_manager.o
 .debug_ranges  0x00000840       0x38 ./KSDK/platform/system/clock/fsl_clock_manager.o
 .debug_ranges  0x00000878       0x18 ./KSDK/platform/startup/MK64F12/system_MK64F12.o
 .debug_ranges  0x00000890      0x118 ./KSDK/platform/osa/src/fsl_os_abstraction_ucosiii.o
 .debug_ranges  0x000009a8      0x2a8 ./KSDK/platform/hal/sim/MK64F12/fsl_sim_hal_K64F12.o
 .debug_ranges  0x00000c50       0x18 ./KSDK/platform/hal/gpio/fsl_gpio_hal.o
 .debug_ranges  0x00000c68       0xf0 ./KSDK/platform/drivers/gpio/src/fsl_gpio_driver.o
 .debug_ranges  0x00000d58       0x20 ./KSDK/boards/frdmk64f120m/hardware_init.o
 .debug_ranges  0x00000d78       0xb8 ./KSDK/boards/frdmk64f120m/pin_mux.o
 .debug_ranges  0x00000e30       0x10 ./BSP/KSDK/startup.o
 .debug_ranges  0x00000e40       0x28 ./BSP/cpu_bsp.o
 .debug_ranges  0x00000e68       0x50 ./APP/app.o

.debug_line     0x00000000     0x7274
 .debug_line    0x00000000      0x153 ./uCOS-III/Source/os_cfg_app.o
 .debug_line    0x00000153      0x668 ./uCOS-III/Source/os_core.o
 .debug_line    0x000007bb      0x193 ./uCOS-III/Source/os_dbg.o
 .debug_line    0x0000094e      0x351 ./uCOS-III/Source/os_flag.o
 .debug_line    0x00000c9f      0x191 ./uCOS-III/Source/os_mem.o
 .debug_line    0x00000e30      0x216 ./uCOS-III/Source/os_msg.o
 .debug_line    0x00001046      0x30e ./uCOS-III/Source/os_mutex.o
 .debug_line    0x00001354      0x14e ./uCOS-III/Source/os_prio.o
 .debug_line    0x000014a2      0x2cd ./uCOS-III/Source/os_q.o
 .debug_line    0x0000176f      0x2da ./uCOS-III/Source/os_sem.o
 .debug_line    0x00001a49      0x25d ./uCOS-III/Source/os_stat.o
 .debug_line    0x00001ca6      0x5d2 ./uCOS-III/Source/os_task.o
 .debug_line    0x00002278      0x2bf ./uCOS-III/Source/os_tick.o
 .debug_line    0x00002537      0x21d ./uCOS-III/Source/os_time.o
 .debug_line    0x00002754      0x341 ./uCOS-III/Source/os_tmr.o
 .debug_line    0x00002a95      0x130 ./uCOS-III/Source/os_var.o
 .debug_line    0x00002bc5      0x105 ./uCOS-III/Ports/ARM-Cortex-M4/Generic/GNU/os_cpu_a.o
 .debug_line    0x00002cca      0x2d0 ./uCOS-III/Ports/ARM-Cortex-M4/Generic/GNU/os_cpu_c.o
 .debug_line    0x00002f9a      0x5a8 ./uC-LIB/lib_mem.o
 .debug_line    0x00003542      0x58b ./uC-LIB/lib_str.o
 .debug_line    0x00003acd       0xad ./uC-CPU/ARM-Cortex-M4/GNU/cpu_a.o
 .debug_line    0x00003b7a      0x2dc ./uC-CPU/cpu_core.o
 .debug_line    0x00003e56      0x233 ./KSDK/platform/system/interrupt/src/fsl_interrupt_manager.o
 .debug_line    0x00004089      0x268 ./KSDK/platform/system/clock/fsl_clock_manager.o
 .debug_line    0x000042f1      0x26a ./KSDK/platform/startup/MK64F12/system_MK64F12.o
 .debug_line    0x0000455b      0x6cd ./KSDK/platform/osa/src/fsl_os_abstraction_ucosiii.o
 .debug_line    0x00004c28      0x876 ./KSDK/platform/hal/sim/MK64F12/fsl_sim_hal_K64F12.o
 .debug_line    0x0000549e      0x1fa ./KSDK/platform/hal/gpio/fsl_gpio_hal.o
 .debug_line    0x00005698      0x74a ./KSDK/platform/drivers/gpio/src/fsl_gpio_driver.o
 .debug_line    0x00005de2      0x1bb ./KSDK/platform/drivers/gpio/common/fsl_gpio_common.o
 .debug_line    0x00005f9d      0x203 ./KSDK/boards/frdmk64f120m/gpio_pins.o
 .debug_line    0x000061a0      0x2c9 ./KSDK/boards/frdmk64f120m/hardware_init.o
 .debug_line    0x00006469      0x468 ./KSDK/boards/frdmk64f120m/pin_mux.o
 .debug_line    0x000068d1       0x95 ./BSP/KSDK/KDS/startup_MK64F12.o
 .debug_line    0x00006966      0x182 ./BSP/KSDK/startup.o
 .debug_line    0x00006ae8      0x24c ./BSP/cpu_bsp.o
 .debug_line    0x00006d34      0x540 ./APP/app.o

.debug_str      0x00000000     0x7005
 .debug_str     0x00000000      0x5b5 ./uCOS-III/Source/os_cfg_app.o
                                0x5f1 (size before relaxing)
 .debug_str     0x000005b5     0x1534 ./uCOS-III/Source/os_core.o
                               0x1849 (size before relaxing)
 .debug_str     0x00001ae9      0x80b ./uCOS-III/Source/os_dbg.o
                               0x1013 (size before relaxing)
 .debug_str     0x000022f4      0x159 ./uCOS-III/Source/os_flag.o
                               0x144e (size before relaxing)
 .debug_str     0x0000244d       0xc0 ./uCOS-III/Source/os_mem.o
                                0xf4d (size before relaxing)
 .debug_str     0x0000250d       0xc6 ./uCOS-III/Source/os_msg.o
                                0xfb9 (size before relaxing)
 .debug_str     0x000025d3      0x170 ./uCOS-III/Source/os_mutex.o
                               0x1459 (size before relaxing)
 .debug_str     0x00002743       0x9f ./uCOS-III/Source/os_prio.o
                                0x232 (size before relaxing)
 .debug_str     0x000027e2       0xf2 ./uCOS-III/Source/os_q.o
                               0x13f2 (size before relaxing)
 .debug_str     0x000028d4       0xf8 ./uCOS-III/Source/os_sem.o
                               0x13e5 (size before relaxing)
 .debug_str     0x000029cc       0xf4 ./uCOS-III/Source/os_stat.o
                               0x1532 (size before relaxing)
 .debug_str     0x00002ac0      0x263 ./uCOS-III/Source/os_task.o
                               0x15eb (size before relaxing)
 .debug_str     0x00002d23      0x130 ./uCOS-III/Source/os_tick.o
                               0x146e (size before relaxing)
 .debug_str     0x00002e53       0xd3 ./uCOS-III/Source/os_time.o
                               0x13db (size before relaxing)
 .debug_str     0x00002f26      0x177 ./uCOS-III/Source/os_tmr.o
                               0x1578 (size before relaxing)
 .debug_str     0x0000309d       0x56 ./uCOS-III/Source/os_var.o
                                0xb44 (size before relaxing)
 .debug_str     0x000030f3      0x136 ./uCOS-III/Ports/ARM-Cortex-M4/Generic/GNU/os_cpu_c.o
                                0x867 (size before relaxing)
 .debug_str     0x00003229      0x88b ./uC-LIB/lib_mem.o
                                0xa8f (size before relaxing)
 .debug_str     0x00003ab4      0x4af ./uC-LIB/lib_str.o
                                0x68c (size before relaxing)
 .debug_str     0x00003f63      0x2c3 ./uC-CPU/cpu_core.o
                                0x485 (size before relaxing)
 .debug_str     0x00004226      0x5f3 ./KSDK/platform/system/interrupt/src/fsl_interrupt_manager.o
                                0x77d (size before relaxing)
 .debug_str     0x00004819      0x738 ./KSDK/platform/system/clock/fsl_clock_manager.o
                                0x8de (size before relaxing)
 .debug_str     0x00004f51      0x2c9 ./KSDK/platform/startup/MK64F12/system_MK64F12.o
                                0x95a (size before relaxing)
 .debug_str     0x0000521a      0x515 ./KSDK/platform/osa/src/fsl_os_abstraction_ucosiii.o
                               0x1df1 (size before relaxing)
 .debug_str     0x0000572f      0x849 ./KSDK/platform/hal/sim/MK64F12/fsl_sim_hal_K64F12.o
                                0xd3d (size before relaxing)
 .debug_str     0x00005f78      0x176 ./KSDK/platform/hal/gpio/fsl_gpio_hal.o
                                0x330 (size before relaxing)
 .debug_str     0x000060ee      0x794 ./KSDK/platform/drivers/gpio/src/fsl_gpio_driver.o
                                0xf8a (size before relaxing)
 .debug_str     0x00006882       0x5b ./KSDK/platform/drivers/gpio/common/fsl_gpio_common.o
                                0x6fd (size before relaxing)
 .debug_str     0x000068dd      0x14a ./KSDK/boards/frdmk64f120m/gpio_pins.o
                                0x5d0 (size before relaxing)
 .debug_str     0x00006a27       0xd2 ./KSDK/boards/frdmk64f120m/hardware_init.o
                                0x2b9 (size before relaxing)
 .debug_str     0x00006af9      0x1fc ./KSDK/boards/frdmk64f120m/pin_mux.o
                                0x5f8 (size before relaxing)
 .debug_str     0x00006cf5       0xc9 ./BSP/KSDK/startup.o
                                0x2e4 (size before relaxing)
 .debug_str     0x00006dbe       0xa5 ./BSP/cpu_bsp.o
                                0x281 (size before relaxing)
 .debug_str     0x00006e63      0x1a2 ./APP/app.o
                               0x1eb9 (size before relaxing)

.comment        0x00000000       0x70
 .comment       0x00000000       0x70 ./uCOS-III/Source/os_cfg_app.o
                                 0x71 (size before relaxing)
 .comment       0x00000000       0x71 ./uCOS-III/Source/os_core.o
 .comment       0x00000000       0x71 ./uCOS-III/Source/os_dbg.o
 .comment       0x00000000       0x71 ./uCOS-III/Source/os_flag.o
 .comment       0x00000000       0x71 ./uCOS-III/Source/os_mem.o
 .comment       0x00000000       0x71 ./uCOS-III/Source/os_msg.o
 .comment       0x00000000       0x71 ./uCOS-III/Source/os_mutex.o
 .comment       0x00000000       0x71 ./uCOS-III/Source/os_prio.o
 .comment       0x00000000       0x71 ./uCOS-III/Source/os_q.o
 .comment       0x00000000       0x71 ./uCOS-III/Source/os_sem.o
 .comment       0x00000000       0x71 ./uCOS-III/Source/os_stat.o
 .comment       0x00000000       0x71 ./uCOS-III/Source/os_task.o
 .comment       0x00000000       0x71 ./uCOS-III/Source/os_tick.o
 .comment       0x00000000       0x71 ./uCOS-III/Source/os_time.o
 .comment       0x00000000       0x71 ./uCOS-III/Source/os_tmr.o
 .comment       0x00000000       0x71 ./uCOS-III/Source/os_var.o
 .comment       0x00000000       0x71 ./uCOS-III/Ports/ARM-Cortex-M4/Generic/GNU/os_cpu_c.o
 .comment       0x00000000       0x71 ./uC-LIB/lib_mem.o
 .comment       0x00000000       0x71 ./uC-LIB/lib_str.o
 .comment       0x00000000       0x71 ./uC-CPU/cpu_core.o
 .comment       0x00000000       0x71 ./KSDK/platform/system/interrupt/src/fsl_interrupt_manager.o
 .comment       0x00000000       0x71 ./KSDK/platform/system/clock/fsl_clock_manager.o
 .comment       0x00000000       0x71 ./KSDK/platform/startup/MK64F12/system_MK64F12.o
 .comment       0x00000000       0x71 ./KSDK/platform/osa/src/fsl_os_abstraction_ucosiii.o
 .comment       0x00000000       0x71 ./KSDK/platform/hal/sim/MK64F12/fsl_sim_hal_K64F12.o
 .comment       0x00000000       0x71 ./KSDK/platform/hal/gpio/fsl_gpio_hal.o
 .comment       0x00000000       0x71 ./KSDK/platform/drivers/gpio/src/fsl_gpio_driver.o
 .comment       0x00000000       0x71 ./KSDK/platform/drivers/gpio/common/fsl_gpio_common.o
 .comment       0x00000000       0x71 ./KSDK/boards/frdmk64f120m/gpio_pins.o
 .comment       0x00000000       0x71 ./KSDK/boards/frdmk64f120m/hardware_init.o
 .comment       0x00000000       0x71 ./KSDK/boards/frdmk64f120m/pin_mux.o
 .comment       0x00000000       0x71 ./BSP/KSDK/startup.o
 .comment       0x00000000       0x71 ./BSP/cpu_bsp.o
 .comment       0x00000000       0x71 ./APP/app.o

.debug_frame    0x00000000     0x3f3c
 .debug_frame   0x00000000       0x28 ./uCOS-III/Source/os_cfg_app.o
 .debug_frame   0x00000028      0x444 ./uCOS-III/Source/os_core.o
 .debug_frame   0x0000046c       0x2c ./uCOS-III/Source/os_dbg.o
 .debug_frame   0x00000498      0x184 ./uCOS-III/Source/os_flag.o
 .debug_frame   0x0000061c       0xa8 ./uCOS-III/Source/os_mem.o
 .debug_frame   0x000006c4       0x9c ./uCOS-III/Source/os_msg.o
 .debug_frame   0x00000760      0x178 ./uCOS-III/Source/os_mutex.o
 .debug_frame   0x000008d8       0x84 ./uCOS-III/Source/os_prio.o
 .debug_frame   0x0000095c      0x164 ./uCOS-III/Source/os_q.o
 .debug_frame   0x00000ac0      0x164 ./uCOS-III/Source/os_sem.o
 .debug_frame   0x00000c24       0x90 ./uCOS-III/Source/os_stat.o
 .debug_frame   0x00000cb4      0x364 ./uCOS-III/Source/os_task.o
 .debug_frame   0x00001018      0x100 ./uCOS-III/Source/os_tick.o
 .debug_frame   0x00001118       0xd0 ./uCOS-III/Source/os_time.o
 .debug_frame   0x000011e8      0x1d4 ./uCOS-III/Source/os_tmr.o
 .debug_frame   0x000013bc      0x150 ./uCOS-III/Ports/ARM-Cortex-M4/Generic/GNU/os_cpu_c.o
 .debug_frame   0x0000150c      0x378 ./uC-LIB/lib_mem.o
 .debug_frame   0x00001884      0x2f8 ./uC-LIB/lib_str.o
 .debug_frame   0x00001b7c      0x27c ./uC-CPU/cpu_core.o
 .debug_frame   0x00001df8       0x60 ./KSDK/platform/system/interrupt/src/fsl_interrupt_manager.o
 .debug_frame   0x00001e58       0xd0 ./KSDK/platform/system/clock/fsl_clock_manager.o
 .debug_frame   0x00001f28       0x44 ./KSDK/platform/startup/MK64F12/system_MK64F12.o
 .debug_frame   0x00001f6c      0x440 ./KSDK/platform/osa/src/fsl_os_abstraction_ucosiii.o
 .debug_frame   0x000023ac      0x940 ./KSDK/platform/hal/sim/MK64F12/fsl_sim_hal_K64F12.o
 .debug_frame   0x00002cec       0x50 ./KSDK/platform/hal/gpio/fsl_gpio_hal.o
 .debug_frame   0x00002d3c      0x3ac ./KSDK/platform/drivers/gpio/src/fsl_gpio_driver.o
 .debug_frame   0x000030e8       0x70 ./KSDK/boards/frdmk64f120m/hardware_init.o
 .debug_frame   0x00003158      0x2d0 ./KSDK/boards/frdmk64f120m/pin_mux.o
 .debug_frame   0x00003428       0x2c ./BSP/KSDK/startup.o
 .debug_frame   0x00003454       0x90 ./BSP/cpu_bsp.o
 .debug_frame   0x000034e4      0x11c ./APP/app.o
 .debug_frame   0x00003600       0x48 c:/freescale/kds_v3/toolchain/bin/../lib/gcc/arm-none-eabi/4.8.4/../../../../arm-none-eabi/lib/armv7e-m/fpu\libg_s.a(lib_a-assert.o)
 .debug_frame   0x00003648       0x28 c:/freescale/kds_v3/toolchain/bin/../lib/gcc/arm-none-eabi/4.8.4/../../../../arm-none-eabi/lib/armv7e-m/fpu\libg_s.a(lib_a-exit.o)
 .debug_frame   0x00003670       0x58 c:/freescale/kds_v3/toolchain/bin/../lib/gcc/arm-none-eabi/4.8.4/../../../../arm-none-eabi/lib/armv7e-m/fpu\libg_s.a(lib_a-fprintf.o)
 .debug_frame   0x000036c8       0x2c c:/freescale/kds_v3/toolchain/bin/../lib/gcc/arm-none-eabi/4.8.4/../../../../arm-none-eabi/lib/armv7e-m/fpu\libg_s.a(lib_a-init.o)
 .debug_frame   0x000036f4       0x20 c:/freescale/kds_v3/toolchain/bin/../lib/gcc/arm-none-eabi/4.8.4/../../../../arm-none-eabi/lib/armv7e-m/fpu\libg_s.a(lib_a-memset.o)
 .debug_frame   0x00003714       0x2c c:/freescale/kds_v3/toolchain/bin/../lib/gcc/arm-none-eabi/4.8.4/../../../../arm-none-eabi/lib/armv7e-m/fpu\libg_s.a(lib_a-nano-freer.o)
 .debug_frame   0x00003740       0x2c c:/freescale/kds_v3/toolchain/bin/../lib/gcc/arm-none-eabi/4.8.4/../../../../arm-none-eabi/lib/armv7e-m/fpu\libg_s.a(lib_a-nano-mallocr.o)
 .debug_frame   0x0000376c       0x2c c:/freescale/kds_v3/toolchain/bin/../lib/gcc/arm-none-eabi/4.8.4/../../../../arm-none-eabi/lib/armv7e-m/fpu\libg_s.a(lib_a-sbrkr.o)
 .debug_frame   0x00003798       0xa8 c:/freescale/kds_v3/toolchain/bin/../lib/gcc/arm-none-eabi/4.8.4/../../../../arm-none-eabi/lib/armv7e-m/fpu\libg_s.a(lib_a-vfprintf.o)
 .debug_frame   0x00003840       0x60 c:/freescale/kds_v3/toolchain/bin/../lib/gcc/arm-none-eabi/4.8.4/../../../../arm-none-eabi/lib/armv7e-m/fpu\libg_s.a(lib_a-vfprintf_i.o)
 .debug_frame   0x000038a0       0x3c c:/freescale/kds_v3/toolchain/bin/../lib/gcc/arm-none-eabi/4.8.4/../../../../arm-none-eabi/lib/armv7e-m/fpu\libg_s.a(lib_a-wbuf.o)
 .debug_frame   0x000038dc       0x2c c:/freescale/kds_v3/toolchain/bin/../lib/gcc/arm-none-eabi/4.8.4/../../../../arm-none-eabi/lib/armv7e-m/fpu\libg_s.a(lib_a-wsetup.o)
 .debug_frame   0x00003908       0x28 c:/freescale/kds_v3/toolchain/bin/../lib/gcc/arm-none-eabi/4.8.4/../../../../arm-none-eabi/lib/armv7e-m/fpu\libg_s.a(lib_a-abort.o)
 .debug_frame   0x00003930       0x5c c:/freescale/kds_v3/toolchain/bin/../lib/gcc/arm-none-eabi/4.8.4/../../../../arm-none-eabi/lib/armv7e-m/fpu\libg_s.a(lib_a-fflush.o)
 .debug_frame   0x0000398c      0x12c c:/freescale/kds_v3/toolchain/bin/../lib/gcc/arm-none-eabi/4.8.4/../../../../arm-none-eabi/lib/armv7e-m/fpu\libg_s.a(lib_a-findfp.o)
 .debug_frame   0x00003ab8       0x30 c:/freescale/kds_v3/toolchain/bin/../lib/gcc/arm-none-eabi/4.8.4/../../../../arm-none-eabi/lib/armv7e-m/fpu\libg_s.a(lib_a-makebuf.o)
 .debug_frame   0x00003ae8       0x28 c:/freescale/kds_v3/toolchain/bin/../lib/gcc/arm-none-eabi/4.8.4/../../../../arm-none-eabi/lib/armv7e-m/fpu\libg_s.a(lib_a-memchr-stub.o)
 .debug_frame   0x00003b10       0x48 c:/freescale/kds_v3/toolchain/bin/../lib/gcc/arm-none-eabi/4.8.4/../../../../arm-none-eabi/lib/armv7e-m/fpu\libg_s.a(lib_a-reent.o)
 .debug_frame   0x00003b58       0xc0 c:/freescale/kds_v3/toolchain/bin/../lib/gcc/arm-none-eabi/4.8.4/../../../../arm-none-eabi/lib/armv7e-m/fpu\libg_s.a(lib_a-signal.o)
 .debug_frame   0x00003c18       0x3c c:/freescale/kds_v3/toolchain/bin/../lib/gcc/arm-none-eabi/4.8.4/../../../../arm-none-eabi/lib/armv7e-m/fpu\libg_s.a(lib_a-signalr.o)
 .debug_frame   0x00003c54       0x80 c:/freescale/kds_v3/toolchain/bin/../lib/gcc/arm-none-eabi/4.8.4/../../../../arm-none-eabi/lib/armv7e-m/fpu\libg_s.a(lib_a-stdio.o)
 .debug_frame   0x00003cd4       0x20 c:/freescale/kds_v3/toolchain/bin/../lib/gcc/arm-none-eabi/4.8.4/../../../../arm-none-eabi/lib/armv7e-m/fpu\libg_s.a(lib_a-strlen.o)
 .debug_frame   0x00003cf4       0x2c c:/freescale/kds_v3/toolchain/bin/../lib/gcc/arm-none-eabi/4.8.4/../../../../arm-none-eabi/lib/armv7e-m/fpu\libg_s.a(lib_a-writer.o)
 .debug_frame   0x00003d20       0x2c c:/freescale/kds_v3/toolchain/bin/../lib/gcc/arm-none-eabi/4.8.4/../../../../arm-none-eabi/lib/armv7e-m/fpu\libg_s.a(lib_a-closer.o)
 .debug_frame   0x00003d4c       0x2c c:/freescale/kds_v3/toolchain/bin/../lib/gcc/arm-none-eabi/4.8.4/../../../../arm-none-eabi/lib/armv7e-m/fpu\libg_s.a(lib_a-fstatr.o)
 .debug_frame   0x00003d78       0x2c c:/freescale/kds_v3/toolchain/bin/../lib/gcc/arm-none-eabi/4.8.4/../../../../arm-none-eabi/lib/armv7e-m/fpu\libg_s.a(lib_a-isattyr.o)
 .debug_frame   0x00003da4       0x2c c:/freescale/kds_v3/toolchain/bin/../lib/gcc/arm-none-eabi/4.8.4/../../../../arm-none-eabi/lib/armv7e-m/fpu\libg_s.a(lib_a-lseekr.o)
 .debug_frame   0x00003dd0       0x2c c:/freescale/kds_v3/toolchain/bin/../lib/gcc/arm-none-eabi/4.8.4/../../../../arm-none-eabi/lib/armv7e-m/fpu\libg_s.a(lib_a-readr.o)
 .debug_frame   0x00003dfc       0x20 c:/freescale/kds_v3/toolchain/bin/../lib/gcc/arm-none-eabi/4.8.4/../../../../arm-none-eabi/lib/armv7e-m/fpu\libnosys.a(close.o)
 .debug_frame   0x00003e1c       0x20 c:/freescale/kds_v3/toolchain/bin/../lib/gcc/arm-none-eabi/4.8.4/../../../../arm-none-eabi/lib/armv7e-m/fpu\libnosys.a(fstat.o)
 .debug_frame   0x00003e3c       0x20 c:/freescale/kds_v3/toolchain/bin/../lib/gcc/arm-none-eabi/4.8.4/../../../../arm-none-eabi/lib/armv7e-m/fpu\libnosys.a(getpid.o)
 .debug_frame   0x00003e5c       0x20 c:/freescale/kds_v3/toolchain/bin/../lib/gcc/arm-none-eabi/4.8.4/../../../../arm-none-eabi/lib/armv7e-m/fpu\libnosys.a(isatty.o)
 .debug_frame   0x00003e7c       0x20 c:/freescale/kds_v3/toolchain/bin/../lib/gcc/arm-none-eabi/4.8.4/../../../../arm-none-eabi/lib/armv7e-m/fpu\libnosys.a(kill.o)
 .debug_frame   0x00003e9c       0x20 c:/freescale/kds_v3/toolchain/bin/../lib/gcc/arm-none-eabi/4.8.4/../../../../arm-none-eabi/lib/armv7e-m/fpu\libnosys.a(lseek.o)
 .debug_frame   0x00003ebc       0x20 c:/freescale/kds_v3/toolchain/bin/../lib/gcc/arm-none-eabi/4.8.4/../../../../arm-none-eabi/lib/armv7e-m/fpu\libnosys.a(read.o)
 .debug_frame   0x00003edc       0x20 c:/freescale/kds_v3/toolchain/bin/../lib/gcc/arm-none-eabi/4.8.4/../../../../arm-none-eabi/lib/armv7e-m/fpu\libnosys.a(sbrk.o)
 .debug_frame   0x00003efc       0x20 c:/freescale/kds_v3/toolchain/bin/../lib/gcc/arm-none-eabi/4.8.4/../../../../arm-none-eabi/lib/armv7e-m/fpu\libnosys.a(write.o)
 .debug_frame   0x00003f1c       0x20 c:/freescale/kds_v3/toolchain/bin/../lib/gcc/arm-none-eabi/4.8.4/../../../../arm-none-eabi/lib/armv7e-m/fpu\libnosys.a(_exit.o)

.stab           0x00000000       0xcc
 .stab          0x00000000       0x24 c:/freescale/kds_v3/toolchain/bin/../lib/gcc/arm-none-eabi/4.8.4/../../../../arm-none-eabi/lib/armv7e-m/fpu\libnosys.a(close.o)
 .stab          0x00000024       0x18 c:/freescale/kds_v3/toolchain/bin/../lib/gcc/arm-none-eabi/4.8.4/../../../../arm-none-eabi/lib/armv7e-m/fpu\libnosys.a(fstat.o)
                                 0x24 (size before relaxing)
 .stab          0x0000003c       0x18 c:/freescale/kds_v3/toolchain/bin/../lib/gcc/arm-none-eabi/4.8.4/../../../../arm-none-eabi/lib/armv7e-m/fpu\libnosys.a(getpid.o)
                                 0x24 (size before relaxing)
 .stab          0x00000054       0x18 c:/freescale/kds_v3/toolchain/bin/../lib/gcc/arm-none-eabi/4.8.4/../../../../arm-none-eabi/lib/armv7e-m/fpu\libnosys.a(isatty.o)
                                 0x24 (size before relaxing)
 .stab          0x0000006c       0x18 c:/freescale/kds_v3/toolchain/bin/../lib/gcc/arm-none-eabi/4.8.4/../../../../arm-none-eabi/lib/armv7e-m/fpu\libnosys.a(kill.o)
                                 0x24 (size before relaxing)
 .stab          0x00000084       0x18 c:/freescale/kds_v3/toolchain/bin/../lib/gcc/arm-none-eabi/4.8.4/../../../../arm-none-eabi/lib/armv7e-m/fpu\libnosys.a(lseek.o)
                                 0x24 (size before relaxing)
 .stab          0x0000009c       0x18 c:/freescale/kds_v3/toolchain/bin/../lib/gcc/arm-none-eabi/4.8.4/../../../../arm-none-eabi/lib/armv7e-m/fpu\libnosys.a(read.o)
                                 0x24 (size before relaxing)
 .stab          0x000000b4       0x18 c:/freescale/kds_v3/toolchain/bin/../lib/gcc/arm-none-eabi/4.8.4/../../../../arm-none-eabi/lib/armv7e-m/fpu\libnosys.a(write.o)
                                 0x24 (size before relaxing)

.stabstr        0x00000000      0x1b9
 .stabstr       0x00000000      0x1b9 c:/freescale/kds_v3/toolchain/bin/../lib/gcc/arm-none-eabi/4.8.4/../../../../arm-none-eabi/lib/armv7e-m/fpu\libnosys.a(close.o)
